Component: ARM Compiler 5.06 update 6 (build 750) Tool: armlink [4d35ed]

==============================================================================

Section Cross References

    main.o(.text) refers to misc.o(.text) for NVIC_PriorityGroupConfig
    main.o(.text) refers to delay.o(.text) for delay_init
    main.o(.text) refers to usart.o(.text) for uart_init
    main.o(.text) refers to buttons.o(.text) for buttons_init
    main.o(.text) refers to lcd.o(.text) for LCD_Init
    main.o(.text) refers to usart2.o(.text) for Usart2_Init
    main.o(.text) refers to wifi.o(.text) for WiFi_ResetIO_Init
    main.o(.text) refers to millis.o(.text) for millis_init
    main.o(.text) refers to gui_log_console.o(.text) for console_log
    main.o(.text) refers to stm32f10x_gpio.o(.text) for GPIO_WriteBit
    main.o(.text) refers to memseta.o(.text) for __aeabi_memclr
    main.o(.text) refers to appconfig.o(.text) for appconfig_init
    main.o(.text) refers to led.o(.text) for led_init
    main.o(.text) refers to beep.o(.text) for buzzer_init
    main.o(.text) refers to alarm.o(.text) for alarm_init
    main.o(.text) refers to time.o(.text) for time_init
    main.o(.text) refers to pwrmgr.o(.text) for pwrmgr_init
    main.o(.text) refers to display.o(.text) for display_set
    main.o(.text) refers to mpu_task.o(.text) for mpu_updata
    main.o(.text) refers to stopwatch.o(.text) for stopwatch_update
    main.o(.text) refers to usart2.o(.bss) for Usart2_RxBuff
    main.o(.text) refers to wifi.o(.bss) for Data_buff
    main.o(.text) refers to millis.o(.data) for milliseconds
    main.o(.text) refers to lcd.o(.bss) for oledBuffer
    main.o(.text) refers to normal.o(.text) for watchface_normal
    system_stm32f10x.o(.text) refers to system_stm32f10x.o(.data) for .data
    led.o(.text) refers to stm32f10x_rcc.o(.text) for RCC_APB2PeriphClockCmd
    led.o(.text) refers to stm32f10x_gpio.o(.text) for GPIO_PinRemapConfig
    led.o(.text) refers to millis.o(.text) for millis_get
    led.o(.text) refers to pwrmgr.o(.text) for pwrmgr_setState
    led.o(.text) refers to led.o(.data) for .data
    lcd.o(.text) refers to oled_basic.o(.text) for InitGraph
    lcd.o(.text) refers to oled_driver.o(.text) for WriteCmd
    lcd.o(.text) refers to appconfig.o(.bss) for appConfig
    lcd.o(.text) refers to lcd.o(.bss) for .bss
    beep.o(.text) refers to stm32f10x_rcc.o(.text) for RCC_APB1PeriphClockCmd
    beep.o(.text) refers to stm32f10x_gpio.o(.text) for GPIO_Init
    beep.o(.text) refers to stm32f10x_tim.o(.text) for TIM_TimeBaseInit
    beep.o(.text) refers to millis.o(.text) for millis_get
    beep.o(.text) refers to beep.o(.data) for .data
    beep.o(.text) refers to appconfig.o(.bss) for appConfig
    yaogan.o(.text) refers to stm32f10x_rcc.o(.text) for RCC_AHBPeriphClockCmd
    yaogan.o(.text) refers to stm32f10x_dma.o(.text) for DMA_DeInit
    yaogan.o(.text) refers to stm32f10x_gpio.o(.text) for GPIO_Init
    yaogan.o(.text) refers to stm32f10x_adc.o(.text) for ADC_Init
    yaogan.o(.text) refers to dfltui.o(.text) for __aeabi_ui2d
    yaogan.o(.text) refers to dscalb.o(.text) for __ARM_scalbn
    yaogan.o(.text) refers to dmul.o(.text) for __aeabi_dmul
    yaogan.o(.text) refers to dfixui.o(.text) for __aeabi_d2uiz
    yaogan.o(.text) refers to printfa.o(i.__0printf) for __2printf
    yaogan.o(.text) refers to yaogan.o(.data) for .data
    inv_mpu.o(.text) refers to mpu6050.o(.text) for MPU_Write_Len
    inv_mpu.o(.text) refers to printfa.o(i.__0printf) for __2printf
    inv_mpu.o(.text) refers to delay.o(.text) for delay_ms
    inv_mpu.o(.text) refers to inv_mpu.o(.data) for .data
    inv_mpu.o(.text) refers to inv_mpu.o(.conststring) for .conststring
    inv_mpu.o(.text) refers to ffltui.o(.text) for __aeabi_ui2f
    inv_mpu.o(.text) refers to fflti.o(.text) for __aeabi_i2f
    inv_mpu.o(.text) refers to fadd.o(.text) for __aeabi_fsub
    inv_mpu.o(.text) refers to fdiv.o(.text) for __aeabi_fdiv
    inv_mpu.o(.text) refers to fscalb.o(.text) for __ARM_scalbnf
    inv_mpu.o(.text) refers to ffixi.o(.text) for __aeabi_f2iz
    inv_mpu.o(.text) refers to ldiv.o(.text) for __aeabi_ldivmod
    inv_mpu.o(.text) refers to memcmp.o(.text) for memcmp
    inv_mpu.o(.text) refers to fmul.o(.text) for __aeabi_fmul
    inv_mpu.o(.text) refers to inv_mpu_dmp_motion_driver.o(.text) for dmp_set_gyro_bias
    inv_mpu.o(.text) refers to mpuiic.o(.text) for MPU_IIC_Init
    inv_mpu.o(.text) refers to f2d.o(.text) for __aeabi_f2d
    inv_mpu.o(.text) refers to asin.o(i.asin) for asin
    inv_mpu.o(.text) refers to dmul.o(.text) for __aeabi_dmul
    inv_mpu.o(.text) refers to d2f.o(.text) for __aeabi_d2f
    inv_mpu.o(.text) refers to atan2.o(i.atan2) for atan2
    inv_mpu.o(.text) refers to cfrcmple.o(.text) for __aeabi_cfrcmple
    inv_mpu.o(.data) refers to inv_mpu.o(.constdata) for reg
    inv_mpu.o(.data) refers to inv_mpu.o(.constdata) for hw
    inv_mpu.o(.data) refers to inv_mpu.o(.constdata) for test
    inv_mpu_dmp_motion_driver.o(.text) refers to inv_mpu.o(.text) for mpu_load_firmware
    inv_mpu_dmp_motion_driver.o(.text) refers to ffltui.o(.text) for __aeabi_ui2f
    inv_mpu_dmp_motion_driver.o(.text) refers to fdiv.o(.text) for __aeabi_fdiv
    inv_mpu_dmp_motion_driver.o(.text) refers to fscalb.o(.text) for __ARM_scalbnf
    inv_mpu_dmp_motion_driver.o(.text) refers to ffixui.o(.text) for __aeabi_f2uiz
    inv_mpu_dmp_motion_driver.o(.text) refers to fmul.o(.text) for __aeabi_fmul
    inv_mpu_dmp_motion_driver.o(.text) refers to inv_mpu_dmp_motion_driver.o(.constdata) for .constdata
    inv_mpu_dmp_motion_driver.o(.text) refers to inv_mpu_dmp_motion_driver.o(.bss) for .bss
    inv_mpu_dmp_motion_driver.o(.text) refers to memseta.o(.text) for __aeabi_memset
    mpu6050.o(.text) refers to mpuiic.o(.text) for MPU_IIC_Start
    mpu6050.o(.text) refers to delay.o(.text) for delay_ms
    mpu6050.o(.text) refers to gui_log_console.o(.text) for console_log
    mpu6050.o(.text) refers to dflti.o(.text) for __aeabi_i2d
    mpu6050.o(.text) refers to ddiv.o(.text) for __aeabi_ddiv
    mpu6050.o(.text) refers to dadd.o(.text) for __aeabi_dadd
    mpu6050.o(.text) refers to d2f.o(.text) for __aeabi_d2f
    mpu6050.o(.text) refers to fmul.o(.text) for __aeabi_fmul
    mpu6050.o(.text) refers to ffixi.o(.text) for __aeabi_f2iz
    mpuiic.o(.text) refers to delay.o(.text) for delay_us
    mpuiic.o(.text) refers to stm32f10x_rcc.o(.text) for RCC_APB2PeriphClockCmd
    mpuiic.o(.text) refers to stm32f10x_gpio.o(.text) for GPIO_Init
    mpu_task.o(.text) refers to millis.o(.text) for millis_get
    mpu_task.o(.text) refers to animation.o(.text) for animation_start
    mpu_task.o(.text) refers to f2d.o(.text) for __aeabi_f2d
    mpu_task.o(.text) refers to printfa.o(i.__0sprintf) for __2sprintf
    mpu_task.o(.text) refers to draw.o(.text) for draw_string
    mpu_task.o(.text) refers to dadd.o(.text) for __aeabi_dadd
    mpu_task.o(.text) refers to d2f.o(.text) for __aeabi_d2f
    mpu_task.o(.text) refers to sin.o(i.sin) for sin
    mpu_task.o(.text) refers to dscalb.o(.text) for __ARM_scalbn
    mpu_task.o(.text) refers to dfixui.o(.text) for __aeabi_d2uiz
    mpu_task.o(.text) refers to ffixui.o(.text) for __aeabi_f2uiz
    mpu_task.o(.text) refers to display.o(.text) for display_setDrawFunc
    mpu_task.o(.text) refers to buttons.o(.text) for buttons_setFuncs
    mpu_task.o(.text) refers to menu.o(.text) for beginAnimation2
    mpu_task.o(.text) refers to lcd.o(.bss) for oledBuffer
    mpu_task.o(.text) refers to mpu_task.o(.data) for .data
    mpu_task.o(.text) refers to pwrmgr.o(.data) for keep_on
    mpu_task.o(.text) refers to mpu_task.o(.bss) for .bss
    mpu_task.o(.text) refers to mpu6050.o(.data) for mpu_err_flag
    delay.o(.text) refers to misc.o(.text) for SysTick_CLKSourceConfig
    delay.o(.text) refers to system_stm32f10x.o(.data) for SystemCoreClock
    delay.o(.text) refers to delay.o(.data) for .data
    usart.o(.text) refers to stm32f10x_rcc.o(.text) for RCC_APB2PeriphClockCmd
    usart.o(.text) refers to stm32f10x_gpio.o(.text) for GPIO_Init
    usart.o(.text) refers to misc.o(.text) for NVIC_Init
    usart.o(.text) refers to stm32f10x_usart.o(.text) for USART_Init
    usart.o(.text) refers to usart.o(.data) for .data
    usart.o(.text) refers to usart.o(.bss) for .bss
    startup_stm32f10x_md.o(RESET) refers to startup_stm32f10x_md.o(STACK) for __initial_sp
    startup_stm32f10x_md.o(RESET) refers to startup_stm32f10x_md.o(.text) for Reset_Handler
    startup_stm32f10x_md.o(RESET) refers to stm32f10x_it.o(.text) for NMI_Handler
    startup_stm32f10x_md.o(RESET) refers to millis.o(.text) for TIM3_IRQHandler
    startup_stm32f10x_md.o(RESET) refers to usart.o(.text) for USART1_IRQHandler
    startup_stm32f10x_md.o(RESET) refers to usart2.o(.text) for USART2_IRQHandler
    startup_stm32f10x_md.o(.text) refers to system_stm32f10x.o(.text) for SystemInit
    startup_stm32f10x_md.o(.text) refers to entry.o(.ARM.Collect$$$$00000000) for __main
    stm32f10x_gpio.o(.text) refers to stm32f10x_rcc.o(.text) for RCC_APB2PeriphResetCmd
    stm32f10x_rcc.o(.text) refers to stm32f10x_rcc.o(.data) for .data
    stm32f10x_usart.o(.text) refers to stm32f10x_rcc.o(.text) for RCC_APB2PeriphResetCmd
    stm32f10x_tim.o(.text) refers to stm32f10x_rcc.o(.text) for RCC_APB1PeriphResetCmd
    stm32f10x_spi.o(.text) refers to stm32f10x_rcc.o(.text) for RCC_APB2PeriphResetCmd
    stm32f10x_adc.o(.text) refers to stm32f10x_rcc.o(.text) for RCC_APB2PeriphResetCmd
    alarm.o(.text) refers to time.o(.text) for time_timeMode
    alarm.o(.text) refers to memseta.o(.text) for __aeabi_memclr4
    alarm.o(.text) refers to display.o(.text) for display_setDrawFunc
    alarm.o(.text) refers to buttons.o(.text) for buttons_setFuncs
    alarm.o(.text) refers to tune.o(.text) for tune_stop
    alarm.o(.text) refers to millis.o(.text) for millis_get
    alarm.o(.text) refers to draw.o(.text) for draw_bitmap
    alarm.o(.text) refers to strcpy.o(.text) for strcpy
    alarm.o(.text) refers to led.o(.text) for led_flashing
    alarm.o(.text) refers to alarm.o(.data) for .data
    alarm.o(.text) refers to time.o(.data) for timeDate
    alarm.o(.text) refers to resources.o(.constdata) for menu_alarm
    alarm.o(.text) refers to resources.o(.constdata) for days
    alarm.o(.text) refers to main.o(.constdata) for STAY
    alarms.o(.text) refers to menu.o(.text) for setPrevMenuExit
    alarms.o(.text) refers to draw.o(.text) for draw_clearArea
    alarms.o(.text) refers to printfa.o(i.__0sprintf) for __2sprintf
    alarms.o(.text) refers to alarm.o(.text) for alarm_get
    alarms.o(.text) refers to time.o(.text) for time_timeMode
    alarms.o(.text) refers to alarms.o(.data) for .data
    alarms.o(.text) refers to menu.o(.data) for setting
    alarms.o(.text) refers to menu.o(.bss) for menuData
    alarms.o(.text) refers to resources.o(.constdata) for dowChars
    alarms.o(.text) refers to appconfig.o(.bss) for appConfig
    animation.o(.text) refers to animation.o(.bss) for .bss
    animation.o(.text) refers to appconfig.o(.bss) for appConfig
    appconfig.o(.text) refers to appconfig.o(.bss) for .bss
    buttons.o(.text) refers to stm32f10x_rcc.o(.text) for RCC_APB2PeriphClockCmd
    buttons.o(.text) refers to stm32f10x_gpio.o(.text) for GPIO_Init
    buttons.o(.text) refers to millis.o(.text) for millis_get
    buttons.o(.text) refers to tune.o(.text) for tune_play
    buttons.o(.text) refers to led.o(.text) for led_flash
    buttons.o(.text) refers to tunes.o(.constdata) for tuneBtn1
    buttons.o(.text) refers to buttons.o(.bss) for .bss
    buttons.o(.text) refers to tunes.o(.constdata) for tuneBtn2
    buttons.o(.text) refers to tunes.o(.constdata) for tuneBtn3
    buttons.o(.text) refers to buttons.o(.data) for .data
    buttons.o(.text) refers to appconfig.o(.bss) for appConfig
    diag.o(.text) refers to menu.o(.text) for setMenuOption_P
    diag.o(.text) refers to printfa.o(i.__0sprintf) for __2sprintf
    diag.o(.text) refers to appconfig.o(.text) for appconfig_save
    diag.o(.text) refers to appconfig.o(.bss) for appConfig
    diag.o(.text) refers to diag.o(.data) for .data
    display.o(.text) refers to memseta.o(.text) for __aeabi_memclr
    display.o(.text) refers to millis.o(.text) for millis_get
    display.o(.text) refers to animation.o(.text) for animation_update
    display.o(.text) refers to printfa.o(i.__0sprintf) for __2sprintf
    display.o(.text) refers to draw.o(.text) for draw_string
    display.o(.text) refers to display.o(.data) for .data
    display.o(.text) refers to lcd.o(.bss) for oledBuffer
    display.o(.text) refers to appconfig.o(.bss) for appConfig
    draw.o(.text) refers to animation.o(.text) for animation_offsetY
    draw.o(.text) refers to strlen.o(.text) for strlen
    draw.o(.text) refers to malloc.o(i.malloc) for malloc
    draw.o(.text) refers to strcpy.o(.text) for strcpy
    draw.o(.text) refers to malloc.o(i.free) for free
    draw.o(.text) refers to memseta.o(.text) for __aeabi_memclr
    draw.o(.text) refers to lcd.o(.text) for oled_flush
    draw.o(.text) refers to lcd.o(.bss) for oledBuffer
    draw.o(.text) refers to resources.o(.constdata) for smallFont
    game1.o(.text) refers to malloc.o(i.free) for free
    game1.o(.text) refers to menu.o(.text) for back
    game1.o(.text) refers to fadd.o(.text) for __aeabi_fadd
    game1.o(.text) refers to ffixui.o(.text) for __aeabi_f2uiz
    game1.o(.text) refers to draw.o(.text) for draw_bitmap
    game1.o(.text) refers to ffltui.o(.text) for __aeabi_ui2f
    game1.o(.text) refers to cfcmple.o(.text) for __aeabi_cfcmple
    game1.o(.text) refers to cfrcmple.o(.text) for __aeabi_cfrcmple
    game1.o(.text) refers to beep.o(.text) for buzzer_buzz
    game1.o(.text) refers to rand.o(.text) for rand
    game1.o(.text) refers to fflti.o(.text) for __aeabi_i2f
    game1.o(.text) refers to fscalb.o(.text) for __ARM_scalbnf
    game1.o(.text) refers to printfa.o(i.__0sprintf) for __2sprintf
    game1.o(.text) refers to display.o(.text) for display_setDrawFunc
    game1.o(.text) refers to buttons.o(.text) for buttons_setFuncs
    game1.o(.text) refers to game1.o(.data) for .data
    game1.o(.text) refers to pwrmgr.o(.data) for keep_on
    game1.o(.text) refers to menu.o(.bss) for menuData
    game1.o(.text) refers to game1.o(.bss) for .bss
    game1.o(.text) refers to game1.o(.constdata) for .constdata
    game1.o(.text) refers to resources.o(.constdata) for livesImg
    game1.o(.text) refers to animation.o(.text) for animation_start
    game1.o(.text) refers to millis.o(.text) for millis_get
    game1.o(.text) refers to calloc.o(.text) for calloc
    game2.o(.text) refers to animation.o(.text) for animation_start
    game2.o(.text) refers to rand.o(.text) for rand
    game2.o(.text) refers to millis.o(.text) for millis_get
    game2.o(.text) refers to led.o(.text) for led_flash
    game2.o(.text) refers to beep.o(.text) for buzzer_buzz
    game2.o(.text) refers to draw.o(.text) for draw_bitmap
    game2.o(.text) refers to printfa.o(i.__0sprintf) for __2sprintf
    game2.o(.text) refers to menu.o(.text) for beginAnimation2
    game2.o(.text) refers to display.o(.text) for display_setDrawFunc
    game2.o(.text) refers to buttons.o(.text) for buttons_setFuncs
    game2.o(.text) refers to game2.o(.data) for .data
    game2.o(.text) refers to game2.o(.bss) for .bss
    game2.o(.text) refers to game2.o(.constdata) for .constdata
    game2.o(.text) refers to resources.o(.constdata) for livesImg
    game3.o(.text) refers to draw.o(.text) for draw_bitmap
    game3.o(.text) refers to animation.o(.text) for animation_start
    game3.o(.text) refers to dfixui.o(.text) for __aeabi_d2uiz
    game3.o(.text) refers to cdcmple.o(.text) for __aeabi_cdcmple
    game3.o(.text) refers to dadd.o(.text) for __aeabi_dadd
    game3.o(.text) refers to rand.o(.text) for rand
    game3.o(.text) refers to printfa.o(i.__0sprintf) for __2sprintf
    game3.o(.text) refers to menu.o(.text) for beginAnimation2
    game3.o(.text) refers to millis.o(.text) for millis_get
    game3.o(.text) refers to display.o(.text) for display_setDrawFunc
    game3.o(.text) refers to buttons.o(.text) for buttons_setFuncs
    game3.o(.text) refers to led.o(.text) for led_flash
    game3.o(.text) refers to game3.o(.data) for .data
    game3.o(.text) refers to game3.o(.constdata) for .constdata
    game3.o(.text) refers to resources.o(.constdata) for livesImg
    game3.o(.text) refers to game3.o(.bss) for .bss
    game3.o(.constdata) refers to game3.o(.constdata) for thingImg
    games.o(.text) refers to menu.o(.text) for setMenuOption_P
    games.o(.text) refers to buttons.o(.text) for buttons_setFuncs
    games.o(.text) refers to display.o(.text) for display_setDrawFunc
    games.o(.text) refers to game1.o(.text) for game1_start
    games.o(.text) refers to game2.o(.text) for game2_start
    games.o(.text) refers to game3.o(.text) for game3_start
    games.o(.text) refers to games.o(.data) for .data
    games.o(.text) refers to menu.o(.bss) for menuData
    m_display.o(.text) refers to printfa.o(i.__0sprintf) for __2sprintf
    m_display.o(.text) refers to draw.o(.text) for draw_string
    m_display.o(.text) refers to oled_driver.o(.text) for WriteCmd
    m_display.o(.text) refers to menu.o(.text) for addBackOption
    m_display.o(.text) refers to appconfig.o(.text) for appconfig_save
    m_display.o(.text) refers to menu.o(.bss) for menuData
    m_display.o(.text) refers to display.o(.data) for MY_FPS
    m_display.o(.text) refers to appconfig.o(.bss) for appConfig
    m_display.o(.text) refers to led.o(.data) for CTRL_LEDs
    m_display.o(.text) refers to m_display.o(.data) for .data
    m_display.o(.text) refers to resources.o(.constdata) for menu_brightness
    m_display.o(.text) refers to resources.o(.constdata) for menu_invert
    m_display.o(.text) refers to resources.o(.constdata) for menu_rotate
    m_display.o(.text) refers to resources.o(.constdata) for menu_anim
    m_display.o(.text) refers to resources.o(.constdata) for menu_setfps
    m_display.o(.text) refers to resources.o(.constdata) for menu_LEDs
    m_main.o(.text) refers to menu.o(.text) for setMenuOption_P
    m_main.o(.text) refers to display.o(.text) for display_setDrawFunc
    m_main.o(.text) refers to buttons.o(.text) for buttons_setFuncs
    m_main.o(.text) refers to alarms.o(.text) for mAlarmsOpen
    m_main.o(.text) refers to resources.o(.constdata) for menu_alarm
    m_main.o(.text) refers to torch.o(.text) for torch_open
    m_main.o(.text) refers to resources.o(.constdata) for menu_torch
    m_main.o(.text) refers to stopwatch.o(.text) for stopwatch_open
    m_main.o(.text) refers to resources.o(.constdata) for menu_stopwatch
    m_main.o(.text) refers to tunemaker.o(.text) for tunemakerOpen
    m_main.o(.text) refers to resources.o(.constdata) for menu_tunemaker
    m_main.o(.text) refers to games.o(.text) for mGamesOpen
    m_main.o(.text) refers to resources.o(.constdata) for menu_games
    m_main.o(.text) refers to settings.o(.text) for mSettingsOpen
    m_main.o(.text) refers to resources.o(.constdata) for menu_settings
    m_main.o(.text) refers to resources.o(.constdata) for menu_exit
    m_main.o(.text) refers to m_main.o(.data) for .data
    menu.o(.text) refers to animation.o(.text) for animation_active
    menu.o(.text) refers to m_main.o(.text) for mMainOpen
    menu.o(.text) refers to memseta.o(.text) for __aeabi_memset
    menu.o(.text) refers to strlen.o(.text) for strlen
    menu.o(.text) refers to strcpy.o(.text) for strcpy
    menu.o(.text) refers to draw.o(.text) for draw_string
    menu.o(.text) refers to ffltui.o(.text) for __aeabi_ui2f
    menu.o(.text) refers to fdiv.o(.text) for __aeabi_fdiv
    menu.o(.text) refers to f2d.o(.text) for __aeabi_f2d
    menu.o(.text) refers to dmul.o(.text) for __aeabi_dmul
    menu.o(.text) refers to dadd.o(.text) for __aeabi_dadd
    menu.o(.text) refers to d2f.o(.text) for __aeabi_d2f
    menu.o(.text) refers to sin.o(i.sin) for sin
    menu.o(.text) refers to display.o(.text) for display_load
    menu.o(.text) refers to menu.o(.bss) for .bss
    menu.o(.text) refers to appconfig.o(.bss) for appConfig
    menu.o(.text) refers to menu.o(.data) for .data
    menu.o(.text) refers to resources.o(.constdata) for selectbar_top
    menu.o(.text) refers to resources.o(.constdata) for selectbar_bottom
    menu.o(.text) refers to resources.o(.constdata) for menu_default
    menu.o(.text) refers to resources.o(.constdata) for menu_exit
    menu.o(.text) refers to menu.o(.constdata) for .constdata
    millis.o(.text) refers to misc.o(.text) for NVIC_PriorityGroupConfig
    millis.o(.text) refers to stm32f10x_rcc.o(.text) for RCC_APB1PeriphClockCmd
    millis.o(.text) refers to stm32f10x_tim.o(.text) for TIM_DeInit
    millis.o(.text) refers to wait_data_clock.o(.text) for wifi_wait_data_hander
    millis.o(.text) refers to inv_mpu.o(.text) for mpu_dmp_get_data
    millis.o(.text) refers to millis.o(.data) for .data
    millis.o(.text) refers to time.o(.data) for update
    millis.o(.text) refers to mpu_task.o(.data) for imu_run
    normal.o(.text) refers to menu.o(.text) for beginAnimation
    normal.o(.text) refers to draw.o(.text) for draw_bitmap
    normal.o(.text) refers to global.o(.text) for div10
    normal.o(.text) refers to ui.o(.text) for drawBattery
    normal.o(.text) refers to stopwatch.o(.text) for stopwatch_active
    normal.o(.text) refers to display.o(.text) for display_setDrawFunc
    normal.o(.text) refers to buttons.o(.text) for buttons_setFuncs
    normal.o(.text) refers to animation.o(.text) for animation_start
    normal.o(.text) refers to strcpy.o(.text) for strcpy
    normal.o(.text) refers to mpu_task.o(.text) for mpu_open
    normal.o(.text) refers to wifi_task.o(.text) for wifi_test_open
    normal.o(.text) refers to appconfig.o(.bss) for appConfig
    normal.o(.text) refers to normal.o(.data) for .data
    normal.o(.text) refers to time.o(.data) for timeDate
    normal.o(.text) refers to resources.o(.constdata) for small2Font
    normal.o(.text) refers to resources.o(.constdata) for midFont
    normal.o(.text) refers to millis.o(.data) for milliseconds
    normal.o(.text) refers to resources.o(.constdata) for colon
    normal.o(.text) refers to resources.o(.constdata) for usbIcon
    normal.o(.text) refers to resources.o(.constdata) for chargeIcon
    normal.o(.text) refers to resources.o(.constdata) for stopwatch
    normal.o(.text) refers to resources.o(.constdata) for days
    normal.o(.text) refers to resources.o(.constdata) for months
    normal.o(.text) refers to printfa.o(i.__0sprintf) for __2sprintf
    settings.o(.text) refers to menu.o(.text) for setMenuOption_P
    settings.o(.text) refers to timedate.o(.text) for mTimeDateOpen
    settings.o(.text) refers to resources.o(.constdata) for menu_timedate
    settings.o(.text) refers to sleep.o(.text) for mSleepOpen
    settings.o(.text) refers to resources.o(.constdata) for menu_sleep
    settings.o(.text) refers to sound.o(.text) for mSoundOpen
    settings.o(.text) refers to resources.o(.constdata) for menu_sound
    settings.o(.text) refers to m_display.o(.text) for mDisplayOpen
    settings.o(.text) refers to resources.o(.constdata) for menu_display
    settings.o(.text) refers to diag.o(.text) for mDiagOpen
    settings.o(.text) refers to resources.o(.constdata) for menu_diagnostic
    settings.o(.text) refers to settings.o(.data) for .data
    sleep.o(.text) refers to printfa.o(i.__0sprintf) for __2sprintf
    sleep.o(.text) refers to draw.o(.text) for draw_string
    sleep.o(.text) refers to menu.o(.text) for setMenuOption_P
    sleep.o(.text) refers to appconfig.o(.text) for appconfig_save
    sleep.o(.text) refers to menu.o(.bss) for menuData
    sleep.o(.text) refers to appconfig.o(.bss) for appConfig
    sleep.o(.text) refers to resources.o(.constdata) for menu_sleeptimeout
    sleep.o(.text) refers to sleep.o(.data) for .data
    sound.o(.text) refers to printfa.o(i.__0sprintf) for __2sprintf
    sound.o(.text) refers to draw.o(.text) for draw_string
    sound.o(.text) refers to menu.o(.text) for addBackOption
    sound.o(.text) refers to appconfig.o(.text) for appconfig_save
    sound.o(.text) refers to menu.o(.bss) for menuData
    sound.o(.text) refers to appconfig.o(.bss) for appConfig
    sound.o(.text) refers to sound.o(.data) for .data
    sound.o(.text) refers to resources.o(.constdata) for menu_volume
    stopwatch.o(.text) refers to animation.o(.text) for animation_start
    stopwatch.o(.text) refers to millis.o(.text) for millis_get
    stopwatch.o(.text) refers to ui.o(.text) for drawBattery
    stopwatch.o(.text) refers to global.o(.text) for div10
    stopwatch.o(.text) refers to draw.o(.text) for draw_bitmap
    stopwatch.o(.text) refers to time.o(.text) for time_timeStr
    stopwatch.o(.text) refers to display.o(.text) for display_setDrawFunc
    stopwatch.o(.text) refers to buttons.o(.text) for buttons_setFuncs
    stopwatch.o(.text) refers to menu.o(.text) for beginAnimation2
    stopwatch.o(.text) refers to stopwatch.o(.data) for .data
    stopwatch.o(.text) refers to resources.o(.constdata) for midFont
    stopwatch.o(.text) refers to resources.o(.constdata) for small2Font
    stopwatch.o(.text) refers to resources.o(.constdata) for colon
    time.o(.text) refers to stm32f10x_gpio.o(.text) for GPIO_ReadInputDataBit
    time.o(.text) refers to alarm.o(.text) for alarm_updateNextAlarm
    time.o(.text) refers to printfa.o(i.__0sprintf) for __2sprintf
    time.o(.text) refers to time.o(.data) for .data
    time.o(.text) refers to appconfig.o(.bss) for appConfig
    time.o(.text) refers to time.o(.constdata) for .constdata
    time.o(.text) refers to time.o(.bss) for .bss
    timedate.o(.text) refers to appconfig.o(.text) for appconfig_save
    timedate.o(.text) refers to time.o(.text) for time_set
    timedate.o(.text) refers to menu.o(.text) for prevOption
    timedate.o(.text) refers to draw.o(.text) for draw_clearArea
    timedate.o(.text) refers to printfa.o(i.__0sprintf) for __2sprintf
    timedate.o(.text) refers to strcpy.o(.text) for strcpy
    timedate.o(.text) refers to timedate.o(.data) for .data
    timedate.o(.text) refers to appconfig.o(.bss) for appConfig
    timedate.o(.text) refers to time.o(.data) for timeDate
    timedate.o(.text) refers to menu.o(.bss) for menuData
    timedate.o(.text) refers to menu.o(.data) for setting
    timedate.o(.text) refers to resources.o(.constdata) for months
    torch.o(.text) refers to animation.o(.text) for animation_start
    torch.o(.text) refers to millis.o(.text) for millis_get
    torch.o(.text) refers to memseta.o(.text) for __aeabi_memset
    torch.o(.text) refers to display.o(.text) for display_setDrawFunc
    torch.o(.text) refers to buttons.o(.text) for buttons_setFuncs
    torch.o(.text) refers to menu.o(.text) for beginAnimation2
    torch.o(.text) refers to torch.o(.data) for .data
    torch.o(.text) refers to lcd.o(.bss) for oledBuffer
    tune.o(.text) refers to beep.o(.text) for buzzer_buzz
    tune.o(.text) refers to tune.o(.data) for .data
    tunemaker.o(.text) refers to tune.o(.text) for tune_play
    tunemaker.o(.text) refers to draw.o(.text) for draw_string
    tunemaker.o(.text) refers to animation.o(.text) for animation_start
    tunemaker.o(.text) refers to memseta.o(.text) for __aeabi_memclr
    tunemaker.o(.text) refers to display.o(.text) for display_setDrawFunc
    tunemaker.o(.text) refers to buttons.o(.text) for buttons_setFunc
    tunemaker.o(.text) refers to menu.o(.text) for beginAnimation2
    tunemaker.o(.text) refers to tunemaker.o(.data) for .data
    tunemaker.o(.text) refers to main.o(.constdata) for TUNE
    tunemaker.o(.text) refers to main.o(.constdata) for STAY
    tunemaker.o(.text) refers to tunemaker.o(.bss) for .bss
    tunemaker.o(.text) refers to tunemaker.o(.constdata) for .constdata
    ui.o(.text) refers to draw.o(.text) for draw_bitmap
    ui.o(.text) refers to resources.o(.constdata) for battIconHigh
    pwrmgr.o(.text) refers to buttons.o(.text) for buttons_isActive
    pwrmgr.o(.text) refers to display.o(.text) for display_startCRTAnim
    pwrmgr.o(.text) refers to time.o(.text) for time_wake
    pwrmgr.o(.text) refers to pwrmgr.o(.data) for .data
    oled_basic.o(.text) refers to oled_config.o(.text) for DriverInit
    oled_config.o(.text) refers to oled_driver.o(.text) for SW_SPI_Configuration
    oled_driver.o(.text) refers to stm32f10x_rcc.o(.text) for RCC_APB2PeriphClockCmd
    oled_driver.o(.text) refers to stm32f10x_gpio.o(.text) for GPIO_Init
    oled_driver.o(.text) refers to delay.o(.text) for delay_ms
    gui_log_console.o(.text) refers to draw.o(.text) for draw_string
    gui_log_console.o(.text) refers to printfa.o(i.__0vsprintf) for vsprintf
    gui_log_console.o(.text) refers to strlen.o(.text) for strlen
    gui_log_console.o(.text) refers to strcat.o(.text) for strcat
    gui_log_console.o(.text) refers to lcd.o(.text) for oled_flush
    gui_log_console.o(.text) refers to memseta.o(.text) for __aeabi_memclr
    gui_log_console.o(.text) refers to delay.o(.text) for delay_ms
    gui_log_console.o(.text) refers to gui_log_console.o(.data) for .data
    gui_log_console.o(.text) refers to gui_log_console.o(.bss) for .bss
    gui_log_console.o(.text) refers to lcd.o(.bss) for oledBuffer
    usart2.o(.text) refers to misc.o(.text) for NVIC_PriorityGroupConfig
    usart2.o(.text) refers to stm32f10x_rcc.o(.text) for RCC_APB1PeriphClockCmd
    usart2.o(.text) refers to stm32f10x_usart.o(.text) for USART_DeInit
    usart2.o(.text) refers to stm32f10x_gpio.o(.text) for GPIO_Init
    usart2.o(.text) refers to printfa.o(i.__0vsprintf) for vsprintf
    usart2.o(.text) refers to strlen.o(.text) for strlen
    usart2.o(.text) refers to usart2.o(.bss) for .bss
    usart2.o(.text) refers to wait_data_clock.o(.data) for is_wifi_data_start
    usart2.o(.text) refers to usart2.o(.data) for .data
    wait_data_clock.o(.text) refers to memcpya.o(.text) for __aeabi_memcpy
    wait_data_clock.o(.text) refers to wait_data_clock.o(.data) for .data
    wait_data_clock.o(.text) refers to usart2.o(.data) for Usart2_RxCompleted
    wait_data_clock.o(.text) refers to usart2.o(.data) for Usart2_RxCounter
    wait_data_clock.o(.text) refers to usart2.o(.bss) for Usart2_RxBuff
    wait_data_clock.o(.text) refers to wifi.o(.bss) for Data_buff
    wifi.o(.text) refers to stm32f10x_rcc.o(.text) for RCC_APB2PeriphClockCmd
    wifi.o(.text) refers to stm32f10x_gpio.o(.text) for GPIO_Init
    wifi.o(.text) refers to gui_log_console.o(.text) for console_log
    wifi.o(.text) refers to usart2.o(.text) for u2_printf
    wifi.o(.text) refers to memseta.o(.text) for __aeabi_memclr
    wifi.o(.text) refers to strstr.o(.text) for strstr
    wifi.o(.text) refers to strlen.o(.text) for strlen
    wifi.o(.text) refers to memcpya.o(.text) for __aeabi_memcpy
    wifi.o(.text) refers to time.o(.text) for time_dow
    wifi.o(.text) refers to wifi_cmd_task.o(.data) for cmd_finish
    wifi.o(.text) refers to wifi.o(.data) for .data
    wifi.o(.text) refers to usart2.o(.data) for Usart2_RxCompleted
    wifi.o(.text) refers to usart2.o(.data) for Usart2_RxCounter
    wifi.o(.text) refers to usart2.o(.bss) for Usart2_RxBuff
    wifi.o(.text) refers to wifi.o(.bss) for .bss
    wifi.o(.text) refers to wifi.o(.conststring) for .conststring
    wifi.o(.text) refers to delay.o(.text) for delay_ms
    wifi.o(.data) refers to wifi.o(.conststring) for .conststring
    wifi_task.o(.text) refers to animation.o(.text) for animation_start
    wifi_task.o(.text) refers to buttons.o(.text) for buttons_setFunc
    wifi_task.o(.text) refers to gui_log_console.o(.text) for console_log
    wifi_task.o(.text) refers to wifi_cmd_task.o(.text) for WiFi_CMD_updata
    wifi_task.o(.text) refers to beep.o(.text) for buzzer_buzzing
    wifi_task.o(.text) refers to wifi.o(.text) for updata_time_data
    wifi_task.o(.text) refers to display.o(.text) for display_setDrawFunc
    wifi_task.o(.text) refers to menu.o(.text) for beginAnimation2
    wifi_task.o(.text) refers to pwrmgr.o(.data) for keep_on
    wifi_task.o(.text) refers to wifi_cmd_task.o(.data) for skip_aim_flag
    wifi_task.o(.text) refers to wifi_task.o(.data) for .data
    wifi_task.o(.text) refers to usart2.o(.data) for Usart2_RxCompleted
    wifi_task.o(.text) refers to wifi.o(.bss) for Data_buff
    wifi_task.o(.text) refers to gui_log_console.o(.data) for LOOP_SHOW_MD
    wifi_cmd_task.o(.text) refers to millis.o(.text) for millis_get
    wifi_cmd_task.o(.text) refers to menu.o(.text) for setMenuOption_P
    wifi_cmd_task.o(.text) refers to display.o(.text) for display_setDrawFunc
    wifi_cmd_task.o(.text) refers to buttons.o(.text) for buttons_setFuncs
    wifi_cmd_task.o(.text) refers to wifi.o(.data) for CMD_S
    wifi_cmd_task.o(.text) refers to wifi_cmd_task.o(.data) for .data
    wifi_cmd_task.o(.text) refers to txt_viewer.o(.text) for txt_test_open
    wifi_cmd_task.o(.text) refers to wifi.o(.text) for smartconfig
    wifi_cmd_task.o(.text) refers to menu.o(.bss) for menuData
    wifi_cmd_task.o(.text) refers to wifi_task.o(.text) for wifi_test_open
    txt_viewer.o(.text) refers to malloc.o(i.malloc) for malloc
    txt_viewer.o(.text) refers to gui_log_console.o(.text) for console_log
    txt_viewer.o(.text) refers to strcat.o(.text) for strcat
    txt_viewer.o(.text) refers to malloc.o(i.free) for free
    txt_viewer.o(.text) refers to mpu_task.o(.text) for myOLED_DrawLine
    txt_viewer.o(.text) refers to wifi_task.o(.text) for wifi_test_open
    txt_viewer.o(.text) refers to printfa.o(i.__0sprintf) for __2sprintf
    txt_viewer.o(.text) refers to draw.o(.text) for draw_string
    txt_viewer.o(.text) refers to buttons.o(.text) for buttons_setFuncs
    txt_viewer.o(.text) refers to menu.o(.text) for beginAnimation2
    txt_viewer.o(.text) refers to display.o(.text) for display_setDrawFunc
    txt_viewer.o(.text) refers to txt_viewer.o(.conststring) for .conststring
    txt_viewer.o(.text) refers to txt_viewer.o(.data) for .data
    txt_viewer.o(.text) refers to txt_viewer.o(.bss) for .bss
    txt_viewer.o(.text) refers to pwrmgr.o(.data) for keep_on
    txt_viewer.o(.text) refers to wifi_cmd_task.o(.data) for cmd_finish
    txt_viewer.o(.text) refers to menu.o(.bss) for menuData
    txt_viewer.o(.text) refers to animation.o(.text) for animation_start
    txt_viewer.o(.text) refers to resources.o(.constdata) for smallFont
    txt_viewer.o(.data) refers to txt_viewer.o(.conststring) for .conststring
    txt_viewer.o(.data) refers to txt_viewer.o(.text) for scroll_down
    asin.o(i.__softfp_asin) refers (Special) to iusefp.o(.text) for __I$use$fp
    asin.o(i.__softfp_asin) refers to asin.o(i.asin) for asin
    asin.o(i.asin) refers (Special) to iusefp.o(.text) for __I$use$fp
    asin.o(i.asin) refers to dunder.o(i.__mathlib_dbl_infnan) for __mathlib_dbl_infnan
    asin.o(i.asin) refers to dmul.o(.text) for __aeabi_dmul
    asin.o(i.asin) refers to dadd.o(.text) for __aeabi_dadd
    asin.o(i.asin) refers to errno.o(i.__set_errno) for __set_errno
    asin.o(i.asin) refers to dunder.o(i.__mathlib_dbl_invalid) for __mathlib_dbl_invalid
    asin.o(i.asin) refers to fpclassify.o(i.__ARM_fpclassify) for __ARM_fpclassify
    asin.o(i.asin) refers to dunder.o(i.__mathlib_dbl_underflow) for __mathlib_dbl_underflow
    asin.o(i.asin) refers to poly.o(i.__kernel_poly) for __kernel_poly
    asin.o(i.asin) refers to ddiv.o(.text) for __aeabi_ddiv
    asin.o(i.asin) refers to dscalb.o(.text) for __ARM_scalbn
    asin.o(i.asin) refers to sqrt.o(i.sqrt) for sqrt
    asin.o(i.asin) refers to asin.o(.constdata) for .constdata
    asin.o(.constdata) refers (Special) to iusefp.o(.text) for __I$use$fp
    asin_x.o(i.____softfp_asin$lsc) refers (Special) to iusefp.o(.text) for __I$use$fp
    asin_x.o(i.____softfp_asin$lsc) refers to asin_x.o(i.__asin$lsc) for __asin$lsc
    asin_x.o(i.__asin$lsc) refers (Special) to iusefp.o(.text) for __I$use$fp
    asin_x.o(i.__asin$lsc) refers to dunder.o(i.__mathlib_dbl_infnan) for __mathlib_dbl_infnan
    asin_x.o(i.__asin$lsc) refers to dmul.o(.text) for __aeabi_dmul
    asin_x.o(i.__asin$lsc) refers to dadd.o(.text) for __aeabi_dadd
    asin_x.o(i.__asin$lsc) refers to errno.o(i.__set_errno) for __set_errno
    asin_x.o(i.__asin$lsc) refers to poly.o(i.__kernel_poly) for __kernel_poly
    asin_x.o(i.__asin$lsc) refers to ddiv.o(.text) for __aeabi_ddiv
    asin_x.o(i.__asin$lsc) refers to dscalb.o(.text) for __ARM_scalbn
    asin_x.o(i.__asin$lsc) refers to sqrt.o(i.sqrt) for sqrt
    asin_x.o(i.__asin$lsc) refers to asin_x.o(.constdata) for .constdata
    asin_x.o(.constdata) refers (Special) to iusefp.o(.text) for __I$use$fp
    atan2.o(i.__softfp_atan2) refers (Special) to iusefp.o(.text) for __I$use$fp
    atan2.o(i.__softfp_atan2) refers to atan2.o(i.atan2) for atan2
    atan2.o(i.atan2) refers (Special) to iusefp.o(.text) for __I$use$fp
    atan2.o(i.atan2) refers to dunder.o(i.__mathlib_dbl_infnan2) for __mathlib_dbl_infnan2
    atan2.o(i.atan2) refers to atan.o(i.atan) for atan
    atan2.o(i.atan2) refers to ddiv.o(.text) for __aeabi_ddiv
    atan2.o(i.atan2) refers to dadd.o(.text) for __aeabi_dsub
    atan2.o(i.atan2) refers to qnan.o(.constdata) for __mathlib_zero
    atan2_x.o(i.____softfp_atan2$lsc) refers (Special) to iusefp.o(.text) for __I$use$fp
    atan2_x.o(i.____softfp_atan2$lsc) refers to atan2_x.o(i.__atan2$lsc) for __atan2$lsc
    atan2_x.o(i.__atan2$lsc) refers (Special) to iusefp.o(.text) for __I$use$fp
    atan2_x.o(i.__atan2$lsc) refers to dunder.o(i.__mathlib_dbl_infnan2) for __mathlib_dbl_infnan2
    atan2_x.o(i.__atan2$lsc) refers to atan.o(i.atan) for atan
    atan2_x.o(i.__atan2$lsc) refers to errno.o(i.__set_errno) for __set_errno
    atan2_x.o(i.__atan2$lsc) refers to ddiv.o(.text) for __aeabi_ddiv
    atan2_x.o(i.__atan2$lsc) refers to dadd.o(.text) for __aeabi_dsub
    atan2_x.o(i.__atan2$lsc) refers to qnan.o(.constdata) for __mathlib_zero
    sin.o(i.__softfp_sin) refers (Special) to iusefp.o(.text) for __I$use$fp
    sin.o(i.__softfp_sin) refers to sin.o(i.sin) for sin
    sin.o(i.sin) refers (Special) to iusefp.o(.text) for __I$use$fp
    sin.o(i.sin) refers to errno.o(i.__set_errno) for __set_errno
    sin.o(i.sin) refers to dunder.o(i.__mathlib_dbl_invalid) for __mathlib_dbl_invalid
    sin.o(i.sin) refers to dunder.o(i.__mathlib_dbl_infnan) for __mathlib_dbl_infnan
    sin.o(i.sin) refers to rred.o(i.__ieee754_rem_pio2) for __ieee754_rem_pio2
    sin.o(i.sin) refers to cos_i.o(i.__kernel_cos) for __kernel_cos
    sin.o(i.sin) refers to sin_i.o(i.__kernel_sin) for __kernel_sin
    sin_x.o(i.____softfp_sin$lsc) refers (Special) to iusefp.o(.text) for __I$use$fp
    sin_x.o(i.____softfp_sin$lsc) refers to sin_x.o(i.__sin$lsc) for __sin$lsc
    sin_x.o(i.__sin$lsc) refers (Special) to iusefp.o(.text) for __I$use$fp
    sin_x.o(i.__sin$lsc) refers to errno.o(i.__set_errno) for __set_errno
    sin_x.o(i.__sin$lsc) refers to dunder.o(i.__mathlib_dbl_infnan) for __mathlib_dbl_infnan
    sin_x.o(i.__sin$lsc) refers to rred.o(i.__ieee754_rem_pio2) for __ieee754_rem_pio2
    sin_x.o(i.__sin$lsc) refers to cos_i.o(i.__kernel_cos) for __kernel_cos
    sin_x.o(i.__sin$lsc) refers to sin_i.o(i.__kernel_sin) for __kernel_sin
    entry.o(.ARM.Collect$$$$00000000) refers (Special) to entry10a.o(.ARM.Collect$$$$0000000D) for __rt_final_cpp
    entry.o(.ARM.Collect$$$$00000000) refers (Special) to entry11a.o(.ARM.Collect$$$$0000000F) for __rt_final_exit
    entry.o(.ARM.Collect$$$$00000000) refers (Special) to entry7b.o(.ARM.Collect$$$$00000008) for _main_clock
    entry.o(.ARM.Collect$$$$00000000) refers (Special) to entry8b.o(.ARM.Collect$$$$0000000A) for _main_cpp_init
    entry.o(.ARM.Collect$$$$00000000) refers (Special) to entry9a.o(.ARM.Collect$$$$0000000B) for _main_init
    entry.o(.ARM.Collect$$$$00000000) refers (Special) to entry5.o(.ARM.Collect$$$$00000004) for _main_scatterload
    entry.o(.ARM.Collect$$$$00000000) refers (Special) to entry2.o(.ARM.Collect$$$$00000001) for _main_stk
    ldiv.o(.text) refers to uldiv.o(.text) for __aeabi_uldivmod
    rand.o(.text) refers to rand.o(.data) for .data
    printfb.o(i.__0fprintf$bare) refers to printfb.o(i._printf_core) for _printf_core
    printfb.o(i.__0fprintf$bare) refers to usart.o(.text) for fputc
    printfb.o(i.__0printf$bare) refers to printfb.o(i._printf_core) for _printf_core
    printfb.o(i.__0printf$bare) refers to usart.o(.text) for fputc
    printfb.o(i.__0printf$bare) refers to usart.o(.data) for __stdout
    printfb.o(i.__0snprintf$bare) refers to printfb.o(i._printf_core) for _printf_core
    printfb.o(i.__0snprintf$bare) refers to printfb.o(i._snputc) for _snputc
    printfb.o(i.__0sprintf$bare) refers to printfb.o(i._printf_core) for _printf_core
    printfb.o(i.__0sprintf$bare) refers to printfb.o(i._sputc) for _sputc
    printfb.o(i.__0vfprintf$bare) refers to printfb.o(i._printf_core) for _printf_core
    printfb.o(i.__0vfprintf$bare) refers to usart.o(.text) for fputc
    printfb.o(i.__0vprintf$bare) refers to printfb.o(i._printf_core) for _printf_core
    printfb.o(i.__0vprintf$bare) refers to usart.o(.text) for fputc
    printfb.o(i.__0vprintf$bare) refers to usart.o(.data) for __stdout
    printfb.o(i.__0vsnprintf$bare) refers to printfb.o(i._printf_core) for _printf_core
    printfb.o(i.__0vsnprintf$bare) refers to printfb.o(i._snputc) for _snputc
    printfb.o(i.__0vsprintf$bare) refers to printfb.o(i._printf_core) for _printf_core
    printfb.o(i.__0vsprintf$bare) refers to printfb.o(i._sputc) for _sputc
    printf0.o(i.__0fprintf$0) refers to printf0.o(i._printf_core) for _printf_core
    printf0.o(i.__0fprintf$0) refers to usart.o(.text) for fputc
    printf0.o(i.__0printf$0) refers to printf0.o(i._printf_core) for _printf_core
    printf0.o(i.__0printf$0) refers to usart.o(.text) for fputc
    printf0.o(i.__0printf$0) refers to usart.o(.data) for __stdout
    printf0.o(i.__0snprintf$0) refers to printf0.o(i._printf_core) for _printf_core
    printf0.o(i.__0snprintf$0) refers to printf0.o(i._snputc) for _snputc
    printf0.o(i.__0sprintf$0) refers to printf0.o(i._printf_core) for _printf_core
    printf0.o(i.__0sprintf$0) refers to printf0.o(i._sputc) for _sputc
    printf0.o(i.__0vfprintf$0) refers to printf0.o(i._printf_core) for _printf_core
    printf0.o(i.__0vfprintf$0) refers to usart.o(.text) for fputc
    printf0.o(i.__0vprintf$0) refers to printf0.o(i._printf_core) for _printf_core
    printf0.o(i.__0vprintf$0) refers to usart.o(.text) for fputc
    printf0.o(i.__0vprintf$0) refers to usart.o(.data) for __stdout
    printf0.o(i.__0vsnprintf$0) refers to printf0.o(i._printf_core) for _printf_core
    printf0.o(i.__0vsnprintf$0) refers to printf0.o(i._snputc) for _snputc
    printf0.o(i.__0vsprintf$0) refers to printf0.o(i._printf_core) for _printf_core
    printf0.o(i.__0vsprintf$0) refers to printf0.o(i._sputc) for _sputc
    printf1.o(i.__0fprintf$1) refers to printf1.o(i._printf_core) for _printf_core
    printf1.o(i.__0fprintf$1) refers to usart.o(.text) for fputc
    printf1.o(i.__0printf$1) refers to printf1.o(i._printf_core) for _printf_core
    printf1.o(i.__0printf$1) refers to usart.o(.text) for fputc
    printf1.o(i.__0printf$1) refers to usart.o(.data) for __stdout
    printf1.o(i.__0snprintf$1) refers to printf1.o(i._printf_core) for _printf_core
    printf1.o(i.__0snprintf$1) refers to printf1.o(i._snputc) for _snputc
    printf1.o(i.__0sprintf$1) refers to printf1.o(i._printf_core) for _printf_core
    printf1.o(i.__0sprintf$1) refers to printf1.o(i._sputc) for _sputc
    printf1.o(i.__0vfprintf$1) refers to printf1.o(i._printf_core) for _printf_core
    printf1.o(i.__0vfprintf$1) refers to usart.o(.text) for fputc
    printf1.o(i.__0vprintf$1) refers to printf1.o(i._printf_core) for _printf_core
    printf1.o(i.__0vprintf$1) refers to usart.o(.text) for fputc
    printf1.o(i.__0vprintf$1) refers to usart.o(.data) for __stdout
    printf1.o(i.__0vsnprintf$1) refers to printf1.o(i._printf_core) for _printf_core
    printf1.o(i.__0vsnprintf$1) refers to printf1.o(i._snputc) for _snputc
    printf1.o(i.__0vsprintf$1) refers to printf1.o(i._printf_core) for _printf_core
    printf1.o(i.__0vsprintf$1) refers to printf1.o(i._sputc) for _sputc
    printf1.o(i._printf_core) refers to uidiv.o(.text) for __aeabi_uidivmod
    printf2.o(i.__0fprintf$2) refers to printf2.o(i._printf_core) for _printf_core
    printf2.o(i.__0fprintf$2) refers to usart.o(.text) for fputc
    printf2.o(i.__0printf$2) refers to printf2.o(i._printf_core) for _printf_core
    printf2.o(i.__0printf$2) refers to usart.o(.text) for fputc
    printf2.o(i.__0printf$2) refers to usart.o(.data) for __stdout
    printf2.o(i.__0snprintf$2) refers to printf2.o(i._printf_core) for _printf_core
    printf2.o(i.__0snprintf$2) refers to printf2.o(i._snputc) for _snputc
    printf2.o(i.__0sprintf$2) refers to printf2.o(i._printf_core) for _printf_core
    printf2.o(i.__0sprintf$2) refers to printf2.o(i._sputc) for _sputc
    printf2.o(i.__0vfprintf$2) refers to printf2.o(i._printf_core) for _printf_core
    printf2.o(i.__0vfprintf$2) refers to usart.o(.text) for fputc
    printf2.o(i.__0vprintf$2) refers to printf2.o(i._printf_core) for _printf_core
    printf2.o(i.__0vprintf$2) refers to usart.o(.text) for fputc
    printf2.o(i.__0vprintf$2) refers to usart.o(.data) for __stdout
    printf2.o(i.__0vsnprintf$2) refers to printf2.o(i._printf_core) for _printf_core
    printf2.o(i.__0vsnprintf$2) refers to printf2.o(i._snputc) for _snputc
    printf2.o(i.__0vsprintf$2) refers to printf2.o(i._printf_core) for _printf_core
    printf2.o(i.__0vsprintf$2) refers to printf2.o(i._sputc) for _sputc
    printf3.o(i.__0fprintf$3) refers to printf3.o(i._printf_core) for _printf_core
    printf3.o(i.__0fprintf$3) refers to usart.o(.text) for fputc
    printf3.o(i.__0printf$3) refers to printf3.o(i._printf_core) for _printf_core
    printf3.o(i.__0printf$3) refers to usart.o(.text) for fputc
    printf3.o(i.__0printf$3) refers to usart.o(.data) for __stdout
    printf3.o(i.__0snprintf$3) refers to printf3.o(i._printf_core) for _printf_core
    printf3.o(i.__0snprintf$3) refers to printf3.o(i._snputc) for _snputc
    printf3.o(i.__0sprintf$3) refers to printf3.o(i._printf_core) for _printf_core
    printf3.o(i.__0sprintf$3) refers to printf3.o(i._sputc) for _sputc
    printf3.o(i.__0vfprintf$3) refers to printf3.o(i._printf_core) for _printf_core
    printf3.o(i.__0vfprintf$3) refers to usart.o(.text) for fputc
    printf3.o(i.__0vprintf$3) refers to printf3.o(i._printf_core) for _printf_core
    printf3.o(i.__0vprintf$3) refers to usart.o(.text) for fputc
    printf3.o(i.__0vprintf$3) refers to usart.o(.data) for __stdout
    printf3.o(i.__0vsnprintf$3) refers to printf3.o(i._printf_core) for _printf_core
    printf3.o(i.__0vsnprintf$3) refers to printf3.o(i._snputc) for _snputc
    printf3.o(i.__0vsprintf$3) refers to printf3.o(i._printf_core) for _printf_core
    printf3.o(i.__0vsprintf$3) refers to printf3.o(i._sputc) for _sputc
    printf3.o(i._printf_core) refers to uidiv.o(.text) for __aeabi_uidivmod
    printf4.o(i.__0fprintf$4) refers to printf4.o(i._printf_core) for _printf_core
    printf4.o(i.__0fprintf$4) refers to usart.o(.text) for fputc
    printf4.o(i.__0printf$4) refers to printf4.o(i._printf_core) for _printf_core
    printf4.o(i.__0printf$4) refers to usart.o(.text) for fputc
    printf4.o(i.__0printf$4) refers to usart.o(.data) for __stdout
    printf4.o(i.__0snprintf$4) refers to printf4.o(i._printf_core) for _printf_core
    printf4.o(i.__0snprintf$4) refers to printf4.o(i._snputc) for _snputc
    printf4.o(i.__0sprintf$4) refers to printf4.o(i._printf_core) for _printf_core
    printf4.o(i.__0sprintf$4) refers to printf4.o(i._sputc) for _sputc
    printf4.o(i.__0vfprintf$4) refers to printf4.o(i._printf_core) for _printf_core
    printf4.o(i.__0vfprintf$4) refers to usart.o(.text) for fputc
    printf4.o(i.__0vprintf$4) refers to printf4.o(i._printf_core) for _printf_core
    printf4.o(i.__0vprintf$4) refers to usart.o(.text) for fputc
    printf4.o(i.__0vprintf$4) refers to usart.o(.data) for __stdout
    printf4.o(i.__0vsnprintf$4) refers to printf4.o(i._printf_core) for _printf_core
    printf4.o(i.__0vsnprintf$4) refers to printf4.o(i._snputc) for _snputc
    printf4.o(i.__0vsprintf$4) refers to printf4.o(i._printf_core) for _printf_core
    printf4.o(i.__0vsprintf$4) refers to printf4.o(i._sputc) for _sputc
    printf4.o(i._printf_core) refers to uldiv.o(.text) for __aeabi_uldivmod
    printf5.o(i.__0fprintf$5) refers to printf5.o(i._printf_core) for _printf_core
    printf5.o(i.__0fprintf$5) refers to usart.o(.text) for fputc
    printf5.o(i.__0printf$5) refers to printf5.o(i._printf_core) for _printf_core
    printf5.o(i.__0printf$5) refers to usart.o(.text) for fputc
    printf5.o(i.__0printf$5) refers to usart.o(.data) for __stdout
    printf5.o(i.__0snprintf$5) refers to printf5.o(i._printf_core) for _printf_core
    printf5.o(i.__0snprintf$5) refers to printf5.o(i._snputc) for _snputc
    printf5.o(i.__0sprintf$5) refers to printf5.o(i._printf_core) for _printf_core
    printf5.o(i.__0sprintf$5) refers to printf5.o(i._sputc) for _sputc
    printf5.o(i.__0vfprintf$5) refers to printf5.o(i._printf_core) for _printf_core
    printf5.o(i.__0vfprintf$5) refers to usart.o(.text) for fputc
    printf5.o(i.__0vprintf$5) refers to printf5.o(i._printf_core) for _printf_core
    printf5.o(i.__0vprintf$5) refers to usart.o(.text) for fputc
    printf5.o(i.__0vprintf$5) refers to usart.o(.data) for __stdout
    printf5.o(i.__0vsnprintf$5) refers to printf5.o(i._printf_core) for _printf_core
    printf5.o(i.__0vsnprintf$5) refers to printf5.o(i._snputc) for _snputc
    printf5.o(i.__0vsprintf$5) refers to printf5.o(i._printf_core) for _printf_core
    printf5.o(i.__0vsprintf$5) refers to printf5.o(i._sputc) for _sputc
    printf5.o(i._printf_core) refers to uldiv.o(.text) for __aeabi_uldivmod
    printf6.o(i.__0fprintf$6) refers to printf6.o(i._printf_core) for _printf_core
    printf6.o(i.__0fprintf$6) refers to usart.o(.text) for fputc
    printf6.o(i.__0printf$6) refers to printf6.o(i._printf_core) for _printf_core
    printf6.o(i.__0printf$6) refers to usart.o(.text) for fputc
    printf6.o(i.__0printf$6) refers to usart.o(.data) for __stdout
    printf6.o(i.__0snprintf$6) refers to printf6.o(i._printf_core) for _printf_core
    printf6.o(i.__0snprintf$6) refers to printf6.o(i._snputc) for _snputc
    printf6.o(i.__0sprintf$6) refers to printf6.o(i._printf_core) for _printf_core
    printf6.o(i.__0sprintf$6) refers to printf6.o(i._sputc) for _sputc
    printf6.o(i.__0vfprintf$6) refers to printf6.o(i._printf_core) for _printf_core
    printf6.o(i.__0vfprintf$6) refers to usart.o(.text) for fputc
    printf6.o(i.__0vprintf$6) refers to printf6.o(i._printf_core) for _printf_core
    printf6.o(i.__0vprintf$6) refers to usart.o(.text) for fputc
    printf6.o(i.__0vprintf$6) refers to usart.o(.data) for __stdout
    printf6.o(i.__0vsnprintf$6) refers to printf6.o(i._printf_core) for _printf_core
    printf6.o(i.__0vsnprintf$6) refers to printf6.o(i._snputc) for _snputc
    printf6.o(i.__0vsprintf$6) refers to printf6.o(i._printf_core) for _printf_core
    printf6.o(i.__0vsprintf$6) refers to printf6.o(i._sputc) for _sputc
    printf6.o(i._printf_core) refers to printf6.o(i._printf_pre_padding) for _printf_pre_padding
    printf6.o(i._printf_core) refers to uidiv.o(.text) for __aeabi_uidivmod
    printf6.o(i._printf_core) refers to printf6.o(i._printf_post_padding) for _printf_post_padding
    printf7.o(i.__0fprintf$7) refers to printf7.o(i._printf_core) for _printf_core
    printf7.o(i.__0fprintf$7) refers to usart.o(.text) for fputc
    printf7.o(i.__0printf$7) refers to printf7.o(i._printf_core) for _printf_core
    printf7.o(i.__0printf$7) refers to usart.o(.text) for fputc
    printf7.o(i.__0printf$7) refers to usart.o(.data) for __stdout
    printf7.o(i.__0snprintf$7) refers to printf7.o(i._printf_core) for _printf_core
    printf7.o(i.__0snprintf$7) refers to printf7.o(i._snputc) for _snputc
    printf7.o(i.__0sprintf$7) refers to printf7.o(i._printf_core) for _printf_core
    printf7.o(i.__0sprintf$7) refers to printf7.o(i._sputc) for _sputc
    printf7.o(i.__0vfprintf$7) refers to printf7.o(i._printf_core) for _printf_core
    printf7.o(i.__0vfprintf$7) refers to usart.o(.text) for fputc
    printf7.o(i.__0vprintf$7) refers to printf7.o(i._printf_core) for _printf_core
    printf7.o(i.__0vprintf$7) refers to usart.o(.text) for fputc
    printf7.o(i.__0vprintf$7) refers to usart.o(.data) for __stdout
    printf7.o(i.__0vsnprintf$7) refers to printf7.o(i._printf_core) for _printf_core
    printf7.o(i.__0vsnprintf$7) refers to printf7.o(i._snputc) for _snputc
    printf7.o(i.__0vsprintf$7) refers to printf7.o(i._printf_core) for _printf_core
    printf7.o(i.__0vsprintf$7) refers to printf7.o(i._sputc) for _sputc
    printf7.o(i._printf_core) refers to printf7.o(i._printf_pre_padding) for _printf_pre_padding
    printf7.o(i._printf_core) refers to uldiv.o(.text) for __aeabi_uldivmod
    printf7.o(i._printf_core) refers to printf7.o(i._printf_post_padding) for _printf_post_padding
    printf8.o(i.__0fprintf$8) refers to printf8.o(i._printf_core) for _printf_core
    printf8.o(i.__0fprintf$8) refers to usart.o(.text) for fputc
    printf8.o(i.__0printf$8) refers to printf8.o(i._printf_core) for _printf_core
    printf8.o(i.__0printf$8) refers to usart.o(.text) for fputc
    printf8.o(i.__0printf$8) refers to usart.o(.data) for __stdout
    printf8.o(i.__0snprintf$8) refers to printf8.o(i._printf_core) for _printf_core
    printf8.o(i.__0snprintf$8) refers to printf8.o(i._snputc) for _snputc
    printf8.o(i.__0sprintf$8) refers to printf8.o(i._printf_core) for _printf_core
    printf8.o(i.__0sprintf$8) refers to printf8.o(i._sputc) for _sputc
    printf8.o(i.__0vfprintf$8) refers to printf8.o(i._printf_core) for _printf_core
    printf8.o(i.__0vfprintf$8) refers to usart.o(.text) for fputc
    printf8.o(i.__0vprintf$8) refers to printf8.o(i._printf_core) for _printf_core
    printf8.o(i.__0vprintf$8) refers to usart.o(.text) for fputc
    printf8.o(i.__0vprintf$8) refers to usart.o(.data) for __stdout
    printf8.o(i.__0vsnprintf$8) refers to printf8.o(i._printf_core) for _printf_core
    printf8.o(i.__0vsnprintf$8) refers to printf8.o(i._snputc) for _snputc
    printf8.o(i.__0vsprintf$8) refers to printf8.o(i._printf_core) for _printf_core
    printf8.o(i.__0vsprintf$8) refers to printf8.o(i._sputc) for _sputc
    printf8.o(i._printf_core) refers to printf8.o(i._printf_pre_padding) for _printf_pre_padding
    printf8.o(i._printf_core) refers to uldiv.o(.text) for __aeabi_uldivmod
    printf8.o(i._printf_core) refers to printf8.o(i._printf_post_padding) for _printf_post_padding
    printfa.o(i.__0fprintf) refers (Special) to iusefp.o(.text) for __I$use$fp
    printfa.o(i.__0fprintf) refers to printfa.o(i._printf_core) for _printf_core
    printfa.o(i.__0fprintf) refers to usart.o(.text) for fputc
    printfa.o(i.__0printf) refers (Special) to iusefp.o(.text) for __I$use$fp
    printfa.o(i.__0printf) refers to printfa.o(i._printf_core) for _printf_core
    printfa.o(i.__0printf) refers to usart.o(.text) for fputc
    printfa.o(i.__0printf) refers to usart.o(.data) for __stdout
    printfa.o(i.__0snprintf) refers (Special) to iusefp.o(.text) for __I$use$fp
    printfa.o(i.__0snprintf) refers to printfa.o(i._printf_core) for _printf_core
    printfa.o(i.__0snprintf) refers to printfa.o(i._snputc) for _snputc
    printfa.o(i.__0sprintf) refers (Special) to iusefp.o(.text) for __I$use$fp
    printfa.o(i.__0sprintf) refers to printfa.o(i._printf_core) for _printf_core
    printfa.o(i.__0sprintf) refers to printfa.o(i._sputc) for _sputc
    printfa.o(i.__0vfprintf) refers (Special) to iusefp.o(.text) for __I$use$fp
    printfa.o(i.__0vfprintf) refers to printfa.o(i._printf_core) for _printf_core
    printfa.o(i.__0vfprintf) refers to usart.o(.text) for fputc
    printfa.o(i.__0vprintf) refers (Special) to iusefp.o(.text) for __I$use$fp
    printfa.o(i.__0vprintf) refers to printfa.o(i._printf_core) for _printf_core
    printfa.o(i.__0vprintf) refers to usart.o(.text) for fputc
    printfa.o(i.__0vprintf) refers to usart.o(.data) for __stdout
    printfa.o(i.__0vsnprintf) refers (Special) to iusefp.o(.text) for __I$use$fp
    printfa.o(i.__0vsnprintf) refers to printfa.o(i._printf_core) for _printf_core
    printfa.o(i.__0vsnprintf) refers to printfa.o(i._snputc) for _snputc
    printfa.o(i.__0vsprintf) refers (Special) to iusefp.o(.text) for __I$use$fp
    printfa.o(i.__0vsprintf) refers to printfa.o(i._printf_core) for _printf_core
    printfa.o(i.__0vsprintf) refers to printfa.o(i._sputc) for _sputc
    printfa.o(i._fp_digits) refers (Special) to iusefp.o(.text) for __I$use$fp
    printfa.o(i._fp_digits) refers to dmul.o(.text) for __aeabi_dmul
    printfa.o(i._fp_digits) refers to ddiv.o(.text) for __aeabi_ddiv
    printfa.o(i._fp_digits) refers to cdrcmple.o(.text) for __aeabi_cdrcmple
    printfa.o(i._fp_digits) refers to dadd.o(.text) for __aeabi_dadd
    printfa.o(i._fp_digits) refers to dfixul.o(.text) for __aeabi_d2ulz
    printfa.o(i._fp_digits) refers to uldiv.o(.text) for __aeabi_uldivmod
    printfa.o(i._printf_core) refers (Special) to iusefp.o(.text) for __I$use$fp
    printfa.o(i._printf_core) refers to printfa.o(i._printf_pre_padding) for _printf_pre_padding
    printfa.o(i._printf_core) refers to uldiv.o(.text) for __aeabi_uldivmod
    printfa.o(i._printf_core) refers to printfa.o(i._printf_post_padding) for _printf_post_padding
    printfa.o(i._printf_core) refers to printfa.o(i._fp_digits) for _fp_digits
    printfa.o(i._printf_core) refers to uidiv.o(.text) for __aeabi_uidivmod
    printfa.o(i._printf_post_padding) refers (Special) to iusefp.o(.text) for __I$use$fp
    printfa.o(i._printf_pre_padding) refers (Special) to iusefp.o(.text) for __I$use$fp
    printfa.o(i._snputc) refers (Special) to iusefp.o(.text) for __I$use$fp
    printfa.o(i._sputc) refers (Special) to iusefp.o(.text) for __I$use$fp
    malloc.o(i.free) refers to mvars.o(.data) for __microlib_freelist
    malloc.o(i.malloc) refers to mvars.o(.data) for __microlib_freelist_initialised
    malloc.o(i.malloc) refers to mvars.o(.data) for __microlib_freelist
    malloc.o(i.malloc) refers to startup_stm32f10x_md.o(HEAP) for __heap_base
    mallocr.o(i.__free$realloc) refers to mvars.o(.data) for __microlib_freelist
    mallocr.o(i.__malloc$realloc) refers to mallocr.o(i.internal_alloc) for internal_alloc
    mallocr.o(i.__malloc$realloc) refers to mvars.o(.data) for __microlib_freelist_initialised
    mallocr.o(i.__malloc$realloc) refers to startup_stm32f10x_md.o(HEAP) for __heap_base
    mallocr.o(i.__malloc$realloc) refers to mvars.o(.data) for __microlib_freelist
    mallocr.o(i.internal_alloc) refers to memcpya.o(.text) for __aeabi_memcpy
    mallocr.o(i.internal_alloc) refers to mvars.o(.data) for __microlib_freelist
    mallocr.o(i.realloc) refers to mallocr.o(i.__free$realloc) for __free$realloc
    mallocr.o(i.realloc) refers to mallocr.o(i.internal_alloc) for internal_alloc
    mallocr.o(i.realloc) refers to mallocr.o(i.__malloc$realloc) for __malloc$realloc
    mallocr.o(i.realloc) refers to mvars.o(.data) for __microlib_freelist
    malloca.o(i.__aligned_malloc) refers to mvars.o(.data) for __microlib_freelist_initialised
    malloca.o(i.__aligned_malloc) refers to mvars.o(.data) for __microlib_freelist
    malloca.o(i.__aligned_malloc) refers to startup_stm32f10x_md.o(HEAP) for __heap_base
    malloca.o(i.__free$memalign) refers to mvars.o(.data) for __microlib_freelist
    malloca.o(i.__malloc$memalign) refers to malloca.o(i.__aligned_malloc) for __aligned_malloc
    mallocra.o(i.__aligned_malloc$realloc) refers to mallocra.o(i.internal_alloc) for internal_alloc
    mallocra.o(i.__aligned_malloc$realloc) refers to mvars.o(.data) for __microlib_freelist_initialised
    mallocra.o(i.__aligned_malloc$realloc) refers to startup_stm32f10x_md.o(HEAP) for __heap_base
    mallocra.o(i.__aligned_malloc$realloc) refers to mvars.o(.data) for __microlib_freelist
    mallocra.o(i.__free$realloc$memalign) refers to mvars.o(.data) for __microlib_freelist
    mallocra.o(i.__malloc$realloc$memalign) refers to mallocra.o(i.__aligned_malloc$realloc) for __aligned_malloc$realloc
    mallocra.o(i.__realloc$memalign) refers to mallocra.o(i.__free$realloc$memalign) for __free$realloc$memalign
    mallocra.o(i.__realloc$memalign) refers to mallocra.o(i.internal_alloc) for internal_alloc
    mallocra.o(i.__realloc$memalign) refers to mallocra.o(i.__malloc$realloc$memalign) for __malloc$realloc$memalign
    mallocra.o(i.__realloc$memalign) refers to mvars.o(.data) for __microlib_freelist
    mallocra.o(i.internal_alloc) refers to memcpya.o(.text) for __aeabi_memcpy
    mallocra.o(i.internal_alloc) refers to mvars.o(.data) for __microlib_freelist
    calloc.o(.text) refers to malloc.o(i.malloc) for malloc
    fadd.o(.text) refers (Special) to iusefp.o(.text) for __I$use$fp
    fadd.o(.text) refers to fepilogue.o(.text) for _float_epilogue
    fmul.o(.text) refers (Special) to iusefp.o(.text) for __I$use$fp
    fdiv.o(.text) refers (Special) to iusefp.o(.text) for __I$use$fp
    fdiv.o(.text) refers to fepilogue.o(.text) for _float_round
    fscalb.o(.text) refers (Special) to iusefp.o(.text) for __I$use$fp
    dadd.o(.text) refers (Special) to iusefp.o(.text) for __I$use$fp
    dadd.o(.text) refers to llshl.o(.text) for __aeabi_llsl
    dadd.o(.text) refers to llsshr.o(.text) for __aeabi_lasr
    dadd.o(.text) refers to depilogue.o(.text) for _double_epilogue
    dmul.o(.text) refers (Special) to iusefp.o(.text) for __I$use$fp
    dmul.o(.text) refers to depilogue.o(.text) for _double_epilogue
    ddiv.o(.text) refers (Special) to iusefp.o(.text) for __I$use$fp
    ddiv.o(.text) refers to depilogue.o(.text) for _double_round
    dscalb.o(.text) refers (Special) to iusefp.o(.text) for __I$use$fp
    fflti.o(.text) refers (Special) to iusefp.o(.text) for __I$use$fp
    fflti.o(.text) refers to fepilogue.o(.text) for _float_epilogue
    ffltui.o(.text) refers (Special) to iusefp.o(.text) for __I$use$fp
    ffltui.o(.text) refers to fepilogue.o(.text) for _float_epilogue
    dflti.o(.text) refers (Special) to iusefp.o(.text) for __I$use$fp
    dflti.o(.text) refers to depilogue.o(.text) for _double_epilogue
    dfltui.o(.text) refers (Special) to iusefp.o(.text) for __I$use$fp
    dfltui.o(.text) refers to depilogue.o(.text) for _double_epilogue
    ffixi.o(.text) refers (Special) to iusefp.o(.text) for __I$use$fp
    ffixui.o(.text) refers (Special) to iusefp.o(.text) for __I$use$fp
    dfixui.o(.text) refers (Special) to iusefp.o(.text) for __I$use$fp
    dfixui.o(.text) refers to llushr.o(.text) for __aeabi_llsr
    f2d.o(.text) refers (Special) to iusefp.o(.text) for __I$use$fp
    cdcmple.o(.text) refers (Special) to iusefp.o(.text) for __I$use$fp
    d2f.o(.text) refers (Special) to iusefp.o(.text) for __I$use$fp
    d2f.o(.text) refers to fepilogue.o(.text) for _float_round
    cfcmple.o(.text) refers (Special) to iusefp.o(.text) for __I$use$fp
    cfrcmple.o(.text) refers (Special) to iusefp.o(.text) for __I$use$fp
    atan.o(i.__softfp_atan) refers (Special) to iusefp.o(.text) for __I$use$fp
    atan.o(i.__softfp_atan) refers to atan.o(i.atan) for atan
    atan.o(i.atan) refers (Special) to iusefp.o(.text) for __I$use$fp
    atan.o(i.atan) refers to dunder.o(i.__mathlib_dbl_infnan) for __mathlib_dbl_infnan
    atan.o(i.atan) refers to fpclassify.o(i.__ARM_fpclassify) for __ARM_fpclassify
    atan.o(i.atan) refers to dunder.o(i.__mathlib_dbl_underflow) for __mathlib_dbl_underflow
    atan.o(i.atan) refers to dadd.o(.text) for __aeabi_dadd
    atan.o(i.atan) refers to dscalb.o(.text) for __ARM_scalbn
    atan.o(i.atan) refers to ddiv.o(.text) for __aeabi_ddiv
    atan.o(i.atan) refers to dmul.o(.text) for __aeabi_dmul
    atan.o(i.atan) refers to poly.o(i.__kernel_poly) for __kernel_poly
    atan.o(i.atan) refers to atan.o(.constdata) for .constdata
    atan.o(.constdata) refers (Special) to iusefp.o(.text) for __I$use$fp
    atan_x.o(i.____softfp_atan$lsc) refers (Special) to iusefp.o(.text) for __I$use$fp
    atan_x.o(i.____softfp_atan$lsc) refers to atan_x.o(i.__atan$lsc) for __atan$lsc
    atan_x.o(i.__atan$lsc) refers (Special) to iusefp.o(.text) for __I$use$fp
    atan_x.o(i.__atan$lsc) refers to dunder.o(i.__mathlib_dbl_infnan) for __mathlib_dbl_infnan
    atan_x.o(i.__atan$lsc) refers to dadd.o(.text) for __aeabi_dadd
    atan_x.o(i.__atan$lsc) refers to dscalb.o(.text) for __ARM_scalbn
    atan_x.o(i.__atan$lsc) refers to ddiv.o(.text) for __aeabi_ddiv
    atan_x.o(i.__atan$lsc) refers to dmul.o(.text) for __aeabi_dmul
    atan_x.o(i.__atan$lsc) refers to poly.o(i.__kernel_poly) for __kernel_poly
    atan_x.o(i.__atan$lsc) refers to atan_x.o(.constdata) for .constdata
    atan_x.o(.constdata) refers (Special) to iusefp.o(.text) for __I$use$fp
    cos_i.o(i.__kernel_cos) refers (Special) to iusefp.o(.text) for __I$use$fp
    cos_i.o(i.__kernel_cos) refers to dfixi.o(.text) for __aeabi_d2iz
    cos_i.o(i.__kernel_cos) refers to dmul.o(.text) for __aeabi_dmul
    cos_i.o(i.__kernel_cos) refers to poly.o(i.__kernel_poly) for __kernel_poly
    cos_i.o(i.__kernel_cos) refers to dadd.o(.text) for __aeabi_dsub
    cos_i.o(i.__kernel_cos) refers to dscalb.o(.text) for __ARM_scalbn
    cos_i.o(i.__kernel_cos) refers to cos_i.o(.constdata) for .constdata
    cos_i.o(.constdata) refers (Special) to iusefp.o(.text) for __I$use$fp
    dunder.o(i.__mathlib_dbl_divzero) refers to ddiv.o(.text) for __aeabi_ddiv
    dunder.o(i.__mathlib_dbl_infnan) refers to dscalb.o(.text) for __ARM_scalbn
    dunder.o(i.__mathlib_dbl_infnan2) refers to dadd.o(.text) for __aeabi_dadd
    dunder.o(i.__mathlib_dbl_invalid) refers to ddiv.o(.text) for __aeabi_ddiv
    dunder.o(i.__mathlib_dbl_overflow) refers to dscalb.o(.text) for __ARM_scalbn
    dunder.o(i.__mathlib_dbl_posinfnan) refers to dmul.o(.text) for __aeabi_dmul
    dunder.o(i.__mathlib_dbl_underflow) refers to dscalb.o(.text) for __ARM_scalbn
    fpclassify.o(i.__ARM_fpclassify) refers (Special) to iusefp.o(.text) for __I$use$fp
    poly.o(i.__kernel_poly) refers (Special) to iusefp.o(.text) for __I$use$fp
    poly.o(i.__kernel_poly) refers to dmul.o(.text) for __aeabi_dmul
    poly.o(i.__kernel_poly) refers to dadd.o(.text) for __aeabi_dadd
    qnan.o(.constdata) refers (Special) to iusefp.o(.text) for __I$use$fp
    rred.o(i.__ieee754_rem_pio2) refers (Special) to iusefp.o(.text) for __I$use$fp
    rred.o(i.__ieee754_rem_pio2) refers to dadd.o(.text) for __aeabi_dsub
    rred.o(i.__ieee754_rem_pio2) refers to dmul.o(.text) for __aeabi_dmul
    rred.o(i.__ieee754_rem_pio2) refers to dfixi.o(.text) for __aeabi_d2iz
    rred.o(i.__ieee754_rem_pio2) refers to dflti.o(.text) for __aeabi_i2d
    rred.o(i.__ieee754_rem_pio2) refers to dfltui.o(.text) for __aeabi_ui2d
    rred.o(i.__ieee754_rem_pio2) refers to dscalb.o(.text) for __ARM_scalbn
    rred.o(i.__ieee754_rem_pio2) refers to rred.o(.constdata) for .constdata
    rred.o(i.__use_accurate_range_reduction) refers (Special) to iusefp.o(.text) for __I$use$fp
    rred.o(.constdata) refers (Special) to iusefp.o(.text) for __I$use$fp
    sin_i.o(i.__kernel_sin) refers (Special) to iusefp.o(.text) for __I$use$fp
    sin_i.o(i.__kernel_sin) refers to fpclassify.o(i.__ARM_fpclassify) for __ARM_fpclassify
    sin_i.o(i.__kernel_sin) refers to dunder.o(i.__mathlib_dbl_underflow) for __mathlib_dbl_underflow
    sin_i.o(i.__kernel_sin) refers to dmul.o(.text) for __aeabi_dmul
    sin_i.o(i.__kernel_sin) refers to poly.o(i.__kernel_poly) for __kernel_poly
    sin_i.o(i.__kernel_sin) refers to dscalb.o(.text) for __ARM_scalbn
    sin_i.o(i.__kernel_sin) refers to dadd.o(.text) for __aeabi_dsub
    sin_i.o(i.__kernel_sin) refers to sin_i.o(.constdata) for .constdata
    sin_i.o(.constdata) refers (Special) to iusefp.o(.text) for __I$use$fp
    sin_i_x.o(i.____kernel_sin$lsc) refers (Special) to iusefp.o(.text) for __I$use$fp
    sin_i_x.o(i.____kernel_sin$lsc) refers to dmul.o(.text) for __aeabi_dmul
    sin_i_x.o(i.____kernel_sin$lsc) refers to poly.o(i.__kernel_poly) for __kernel_poly
    sin_i_x.o(i.____kernel_sin$lsc) refers to dscalb.o(.text) for __ARM_scalbn
    sin_i_x.o(i.____kernel_sin$lsc) refers to dadd.o(.text) for __aeabi_dsub
    sin_i_x.o(i.____kernel_sin$lsc) refers to sin_i_x.o(.constdata) for .constdata
    sin_i_x.o(.constdata) refers (Special) to iusefp.o(.text) for __I$use$fp
    sqrt.o(i.__softfp_sqrt) refers (Special) to iusefp.o(.text) for __I$use$fp
    sqrt.o(i.__softfp_sqrt) refers to dsqrt.o(.text) for _dsqrt
    sqrt.o(i.__softfp_sqrt) refers to errno.o(i.__set_errno) for __set_errno
    sqrt.o(i.sqrt) refers (Special) to iusefp.o(.text) for __I$use$fp
    sqrt.o(i.sqrt) refers to dsqrt.o(.text) for _dsqrt
    sqrt.o(i.sqrt) refers to errno.o(i.__set_errno) for __set_errno
    sqrt_x.o(i.____softfp_sqrt$lsc) refers (Special) to iusefp.o(.text) for __I$use$fp
    sqrt_x.o(i.____softfp_sqrt$lsc) refers to cdcmple.o(.text) for __aeabi_cdcmple
    sqrt_x.o(i.____softfp_sqrt$lsc) refers to errno.o(i.__set_errno) for __set_errno
    sqrt_x.o(i.____softfp_sqrt$lsc) refers to dsqrt.o(.text) for _dsqrt
    sqrt_x.o(i.__sqrt$lsc) refers (Special) to iusefp.o(.text) for __I$use$fp
    sqrt_x.o(i.__sqrt$lsc) refers to cdcmple.o(.text) for __aeabi_cdcmple
    sqrt_x.o(i.__sqrt$lsc) refers to errno.o(i.__set_errno) for __set_errno
    sqrt_x.o(i.__sqrt$lsc) refers to dsqrt.o(.text) for _dsqrt
    entry2.o(.ARM.Collect$$$$00000001) refers to entry2.o(.ARM.Collect$$$$00002712) for __lit__00000000
    entry2.o(.ARM.Collect$$$$00002712) refers to startup_stm32f10x_md.o(STACK) for __initial_sp
    entry2.o(__vectab_stack_and_reset_area) refers to startup_stm32f10x_md.o(STACK) for __initial_sp
    entry2.o(__vectab_stack_and_reset_area) refers to entry.o(.ARM.Collect$$$$00000000) for __main
    entry5.o(.ARM.Collect$$$$00000004) refers to init.o(.text) for __scatterload
    entry9a.o(.ARM.Collect$$$$0000000B) refers to main.o(.text) for main
    entry9b.o(.ARM.Collect$$$$0000000C) refers to main.o(.text) for main
    uldiv.o(.text) refers to llushr.o(.text) for __aeabi_llsr
    uldiv.o(.text) refers to llshl.o(.text) for __aeabi_llsl
    errno.o(i.__aeabi_errno_addr) refers to errno.o(.data) for .data
    errno.o(i.__read_errno) refers to errno.o(.data) for .data
    errno.o(i.__set_errno) refers to errno.o(.data) for .data
    depilogue.o(.text) refers to llshl.o(.text) for __aeabi_llsl
    depilogue.o(.text) refers to llushr.o(.text) for __aeabi_llsr
    dfixul.o(.text) refers to llushr.o(.text) for __aeabi_llsr
    dfixul.o(.text) refers to llshl.o(.text) for __aeabi_llsl
    init.o(.text) refers to entry5.o(.ARM.Collect$$$$00000004) for __main_after_scatterload
    dsqrt.o(.text) refers to llushr.o(.text) for __aeabi_llsr
    dsqrt.o(.text) refers to depilogue.o(.text) for _double_round
    dfixi.o(.text) refers to llushr.o(.text) for __aeabi_llsr


==============================================================================

Removing Unused input sections from the image.

    Removing yaogan.o(.text), (632 bytes).
    Removing yaogan.o(.data), (16 bytes).
    Removing sys.o(.emb_text), (6 bytes).
    Removing sys.o(.text), (12 bytes).
    Removing core_cm3.o(.emb_text), (32 bytes).
    Removing stm32f10x_spi.o(.text), (628 bytes).
    Removing stm32f10x_adc.o(.text), (816 bytes).
    Removing stm32f10x_dma.o(.text), (456 bytes).
    Removing resources.o(.constdata), (56 bytes).
    Removing resources.o(.constdata), (16 bytes).
    Removing resources.o(.constdata), (16 bytes).
    Removing resources.o(.constdata), (16 bytes).
    Removing tunes.o(.constdata), (24 bytes).
    Removing tunes.o(.constdata), (24 bytes).
    Removing tunes.o(.constdata), (28 bytes).
    Removing tunes.o(.constdata), (16 bytes).
    Removing tunes.o(.constdata), (36 bytes).
    Removing gui_log_console.o(.data), (1 bytes).

18 unused section(s) (total 2831 bytes) removed from the image.

==============================================================================

Image Symbol Table

    Local Symbols

    Symbol Name                              Value     Ov Type        Size  Object(Section)

    ../clib/../cmprslib/zerorunl2.c          0x00000000   Number         0  __dczerorl2.o ABSOLUTE
    ../clib/microlib/division.c              0x00000000   Number         0  uldiv.o ABSOLUTE
    ../clib/microlib/division.c              0x00000000   Number         0  uidiv.o ABSOLUTE
    ../clib/microlib/division.c              0x00000000   Number         0  ldiv.o ABSOLUTE
    ../clib/microlib/errno.c                 0x00000000   Number         0  errno.o ABSOLUTE
    ../clib/microlib/init/entry.s            0x00000000   Number         0  entry8a.o ABSOLUTE
    ../clib/microlib/init/entry.s            0x00000000   Number         0  entry7b.o ABSOLUTE
    ../clib/microlib/init/entry.s            0x00000000   Number         0  entry9b.o ABSOLUTE
    ../clib/microlib/init/entry.s            0x00000000   Number         0  entry7a.o ABSOLUTE
    ../clib/microlib/init/entry.s            0x00000000   Number         0  entry10a.o ABSOLUTE
    ../clib/microlib/init/entry.s            0x00000000   Number         0  entry5.o ABSOLUTE
    ../clib/microlib/init/entry.s            0x00000000   Number         0  entry2.o ABSOLUTE
    ../clib/microlib/init/entry.s            0x00000000   Number         0  entry10b.o ABSOLUTE
    ../clib/microlib/init/entry.s            0x00000000   Number         0  entry.o ABSOLUTE
    ../clib/microlib/init/entry.s            0x00000000   Number         0  entry9a.o ABSOLUTE
    ../clib/microlib/init/entry.s            0x00000000   Number         0  entry8b.o ABSOLUTE
    ../clib/microlib/init/entry.s            0x00000000   Number         0  entry11a.o ABSOLUTE
    ../clib/microlib/init/entry.s            0x00000000   Number         0  entry11b.o ABSOLUTE
    ../clib/microlib/longlong.c              0x00000000   Number         0  llushr.o ABSOLUTE
    ../clib/microlib/longlong.c              0x00000000   Number         0  llshl.o ABSOLUTE
    ../clib/microlib/longlong.c              0x00000000   Number         0  llsshr.o ABSOLUTE
    ../clib/microlib/malloc/calloc.c         0x00000000   Number         0  calloc.o ABSOLUTE
    ../clib/microlib/malloc/malloc.c         0x00000000   Number         0  malloc.o ABSOLUTE
    ../clib/microlib/malloc/malloc.c         0x00000000   Number         0  mallocr.o ABSOLUTE
    ../clib/microlib/malloc/malloc.c         0x00000000   Number         0  malloca.o ABSOLUTE
    ../clib/microlib/malloc/malloc.c         0x00000000   Number         0  mallocra.o ABSOLUTE
    ../clib/microlib/malloc/mvars.c          0x00000000   Number         0  mvars.o ABSOLUTE
    ../clib/microlib/printf/printf.c         0x00000000   Number         0  printf6.o ABSOLUTE
    ../clib/microlib/printf/printf.c         0x00000000   Number         0  printf5.o ABSOLUTE
    ../clib/microlib/printf/printf.c         0x00000000   Number         0  printf4.o ABSOLUTE
    ../clib/microlib/printf/printf.c         0x00000000   Number         0  printf3.o ABSOLUTE
    ../clib/microlib/printf/printf.c         0x00000000   Number         0  printfa.o ABSOLUTE
    ../clib/microlib/printf/printf.c         0x00000000   Number         0  printf8.o ABSOLUTE
    ../clib/microlib/printf/printf.c         0x00000000   Number         0  printfb.o ABSOLUTE
    ../clib/microlib/printf/printf.c         0x00000000   Number         0  printf0.o ABSOLUTE
    ../clib/microlib/printf/printf.c         0x00000000   Number         0  printf7.o ABSOLUTE
    ../clib/microlib/printf/printf.c         0x00000000   Number         0  printf2.o ABSOLUTE
    ../clib/microlib/printf/printf.c         0x00000000   Number         0  printf1.o ABSOLUTE
    ../clib/microlib/printf/stubs.s          0x00000000   Number         0  stubs.o ABSOLUTE
    ../clib/microlib/stdlib/rand.c           0x00000000   Number         0  rand.o ABSOLUTE
    ../clib/microlib/string/memcmp.c         0x00000000   Number         0  memcmp.o ABSOLUTE
    ../clib/microlib/string/memcpy.c         0x00000000   Number         0  memcpyb.o ABSOLUTE
    ../clib/microlib/string/memcpy.c         0x00000000   Number         0  memcpya.o ABSOLUTE
    ../clib/microlib/string/memset.c         0x00000000   Number         0  memseta.o ABSOLUTE
    ../clib/microlib/string/strcat.c         0x00000000   Number         0  strcat.o ABSOLUTE
    ../clib/microlib/string/strcpy.c         0x00000000   Number         0  strcpy.o ABSOLUTE
    ../clib/microlib/string/strlen.c         0x00000000   Number         0  strlen.o ABSOLUTE
    ../clib/microlib/string/strstr.c         0x00000000   Number         0  strstr.o ABSOLUTE
    ../clib/microlib/stubs.s                 0x00000000   Number         0  iusefp.o ABSOLUTE
    ../clib/microlib/stubs.s                 0x00000000   Number         0  useno.o ABSOLUTE
    ../fplib/microlib/d2f.c                  0x00000000   Number         0  d2f.o ABSOLUTE
    ../fplib/microlib/f2d.c                  0x00000000   Number         0  f2d.o ABSOLUTE
    ../fplib/microlib/fpadd.c                0x00000000   Number         0  fadd.o ABSOLUTE
    ../fplib/microlib/fpadd.c                0x00000000   Number         0  dadd.o ABSOLUTE
    ../fplib/microlib/fpdiv.c                0x00000000   Number         0  fdiv.o ABSOLUTE
    ../fplib/microlib/fpdiv.c                0x00000000   Number         0  ddiv.o ABSOLUTE
    ../fplib/microlib/fpepilogue.c           0x00000000   Number         0  depilogue.o ABSOLUTE
    ../fplib/microlib/fpepilogue.c           0x00000000   Number         0  fepilogue.o ABSOLUTE
    ../fplib/microlib/fpfix.c                0x00000000   Number         0  dfixi.o ABSOLUTE
    ../fplib/microlib/fpfix.c                0x00000000   Number         0  dfixui.o ABSOLUTE
    ../fplib/microlib/fpfix.c                0x00000000   Number         0  ffixui.o ABSOLUTE
    ../fplib/microlib/fpfix.c                0x00000000   Number         0  ffixi.o ABSOLUTE
    ../fplib/microlib/fpfix.c                0x00000000   Number         0  dfixul.o ABSOLUTE
    ../fplib/microlib/fpflt.c                0x00000000   Number         0  ffltui.o ABSOLUTE
    ../fplib/microlib/fpflt.c                0x00000000   Number         0  dfltui.o ABSOLUTE
    ../fplib/microlib/fpflt.c                0x00000000   Number         0  dflti.o ABSOLUTE
    ../fplib/microlib/fpflt.c                0x00000000   Number         0  fflti.o ABSOLUTE
    ../fplib/microlib/fpmul.c                0x00000000   Number         0  dmul.o ABSOLUTE
    ../fplib/microlib/fpmul.c                0x00000000   Number         0  fmul.o ABSOLUTE
    ../fplib/microlib/fpscalb.c              0x00000000   Number         0  fscalb.o ABSOLUTE
    ../fplib/microlib/fpscalb.c              0x00000000   Number         0  dscalb.o ABSOLUTE
    ../fplib/microlib/fpsqrt.c               0x00000000   Number         0  dsqrt.o ABSOLUTE
    ../mathlib/asin.c                        0x00000000   Number         0  asin_x.o ABSOLUTE
    ../mathlib/asin.c                        0x00000000   Number         0  asin.o ABSOLUTE
    ../mathlib/atan.c                        0x00000000   Number         0  atan_x.o ABSOLUTE
    ../mathlib/atan.c                        0x00000000   Number         0  atan.o ABSOLUTE
    ../mathlib/atan2.c                       0x00000000   Number         0  atan2.o ABSOLUTE
    ../mathlib/atan2.c                       0x00000000   Number         0  atan2_x.o ABSOLUTE
    ../mathlib/cos_i.c                       0x00000000   Number         0  cos_i.o ABSOLUTE
    ../mathlib/dunder.c                      0x00000000   Number         0  dunder.o ABSOLUTE
    ../mathlib/fpclassify.c                  0x00000000   Number         0  fpclassify.o ABSOLUTE
    ../mathlib/poly.c                        0x00000000   Number         0  poly.o ABSOLUTE
    ../mathlib/qnan.c                        0x00000000   Number         0  qnan.o ABSOLUTE
    ../mathlib/rred.c                        0x00000000   Number         0  rred.o ABSOLUTE
    ../mathlib/sin.c                         0x00000000   Number         0  sin_x.o ABSOLUTE
    ../mathlib/sin.c                         0x00000000   Number         0  sin.o ABSOLUTE
    ../mathlib/sin_i.c                       0x00000000   Number         0  sin_i.o ABSOLUTE
    ../mathlib/sin_i.c                       0x00000000   Number         0  sin_i_x.o ABSOLUTE
    ../mathlib/sqrt.c                        0x00000000   Number         0  sqrt.o ABSOLUTE
    ../mathlib/sqrt.c                        0x00000000   Number         0  sqrt_x.o ABSOLUTE
    ..\CORE\core_cm3.c                       0x00000000   Number         0  core_cm3.o ABSOLUTE
    ..\CORE\startup_stm32f10x_md.s           0x00000000   Number         0  startup_stm32f10x_md.o ABSOLUTE
    ..\HARDWARE\BEEP\beep.c                  0x00000000   Number         0  beep.o ABSOLUTE
    ..\HARDWARE\LCD\lcd.c                    0x00000000   Number         0  lcd.o ABSOLUTE
    ..\HARDWARE\LED\led.c                    0x00000000   Number         0  led.o ABSOLUTE
    ..\HARDWARE\mpu\eMPL\inv_mpu.c           0x00000000   Number         0  inv_mpu.o ABSOLUTE
    ..\HARDWARE\mpu\eMPL\inv_mpu_dmp_motion_driver.c 0x00000000   Number         0  inv_mpu_dmp_motion_driver.o ABSOLUTE
    ..\HARDWARE\mpu\mpu6050.c                0x00000000   Number         0  mpu6050.o ABSOLUTE
    ..\HARDWARE\mpu\mpu_task.c               0x00000000   Number         0  mpu_task.o ABSOLUTE
    ..\HARDWARE\mpu\mpuiic.c                 0x00000000   Number         0  mpuiic.o ABSOLUTE
    ..\HARDWARE\oledlib\oled_basic.c         0x00000000   Number         0  oled_basic.o ABSOLUTE
    ..\HARDWARE\oledlib\oled_config.c        0x00000000   Number         0  oled_config.o ABSOLUTE
    ..\HARDWARE\oledlib\oled_driver.c        0x00000000   Number         0  oled_driver.o ABSOLUTE
    ..\HARDWARE\yaogan.c                     0x00000000   Number         0  yaogan.o ABSOLUTE
    ..\STM32F10x_FWLib\src\misc.c            0x00000000   Number         0  misc.o ABSOLUTE
    ..\STM32F10x_FWLib\src\stm32f10x_adc.c   0x00000000   Number         0  stm32f10x_adc.o ABSOLUTE
    ..\STM32F10x_FWLib\src\stm32f10x_dma.c   0x00000000   Number         0  stm32f10x_dma.o ABSOLUTE
    ..\STM32F10x_FWLib\src\stm32f10x_gpio.c  0x00000000   Number         0  stm32f10x_gpio.o ABSOLUTE
    ..\STM32F10x_FWLib\src\stm32f10x_rcc.c   0x00000000   Number         0  stm32f10x_rcc.o ABSOLUTE
    ..\STM32F10x_FWLib\src\stm32f10x_spi.c   0x00000000   Number         0  stm32f10x_spi.o ABSOLUTE
    ..\STM32F10x_FWLib\src\stm32f10x_tim.c   0x00000000   Number         0  stm32f10x_tim.o ABSOLUTE
    ..\STM32F10x_FWLib\src\stm32f10x_usart.c 0x00000000   Number         0  stm32f10x_usart.o ABSOLUTE
    ..\SYSTEM\delay\delay.c                  0x00000000   Number         0  delay.o ABSOLUTE
    ..\SYSTEM\sys\sys.c                      0x00000000   Number         0  sys.o ABSOLUTE
    ..\SYSTEM\usart\usart.c                  0x00000000   Number         0  usart.o ABSOLUTE
    ..\WIFI\TXT_Viewer.c                     0x00000000   Number         0  txt_viewer.o ABSOLUTE
    ..\WIFI\gui_log_console.c                0x00000000   Number         0  gui_log_console.o ABSOLUTE
    ..\WIFI\usart2.c                         0x00000000   Number         0  usart2.o ABSOLUTE
    ..\WIFI\wait_data_clock.c                0x00000000   Number         0  wait_data_clock.o ABSOLUTE
    ..\WIFI\wifi.c                           0x00000000   Number         0  wifi.o ABSOLUTE
    ..\WIFI\wifi_cmd_task.c                  0x00000000   Number         0  wifi_cmd_task.o ABSOLUTE
    ..\WIFI\wifi_task.c                      0x00000000   Number         0  wifi_task.o ABSOLUTE
    ..\Watch\alarm.c                         0x00000000   Number         0  alarm.o ABSOLUTE
    ..\Watch\alarms.c                        0x00000000   Number         0  alarms.o ABSOLUTE
    ..\Watch\animation.c                     0x00000000   Number         0  animation.o ABSOLUTE
    ..\Watch\appconfig.c                     0x00000000   Number         0  appconfig.o ABSOLUTE
    ..\Watch\buttons.c                       0x00000000   Number         0  buttons.o ABSOLUTE
    ..\Watch\diag.c                          0x00000000   Number         0  diag.o ABSOLUTE
    ..\Watch\display.c                       0x00000000   Number         0  display.o ABSOLUTE
    ..\Watch\draw.c                          0x00000000   Number         0  draw.o ABSOLUTE
    ..\Watch\game1.c                         0x00000000   Number         0  game1.o ABSOLUTE
    ..\Watch\game2.c                         0x00000000   Number         0  game2.o ABSOLUTE
    ..\Watch\game3.c                         0x00000000   Number         0  game3.o ABSOLUTE
    ..\Watch\games.c                         0x00000000   Number         0  games.o ABSOLUTE
    ..\Watch\global.c                        0x00000000   Number         0  global.o ABSOLUTE
    ..\Watch\m_display.c                     0x00000000   Number         0  m_display.o ABSOLUTE
    ..\Watch\m_main.c                        0x00000000   Number         0  m_main.o ABSOLUTE
    ..\Watch\menu.c                          0x00000000   Number         0  menu.o ABSOLUTE
    ..\Watch\millis.c                        0x00000000   Number         0  millis.o ABSOLUTE
    ..\Watch\normal.c                        0x00000000   Number         0  normal.o ABSOLUTE
    ..\Watch\pwrmgr.c                        0x00000000   Number         0  pwrmgr.o ABSOLUTE
    ..\Watch\resources.c                     0x00000000   Number         0  resources.o ABSOLUTE
    ..\Watch\settings.c                      0x00000000   Number         0  settings.o ABSOLUTE
    ..\Watch\sleep.c                         0x00000000   Number         0  sleep.o ABSOLUTE
    ..\Watch\sound.c                         0x00000000   Number         0  sound.o ABSOLUTE
    ..\Watch\stopwatch.c                     0x00000000   Number         0  stopwatch.o ABSOLUTE
    ..\Watch\time.c                          0x00000000   Number         0  time.o ABSOLUTE
    ..\Watch\timedate.c                      0x00000000   Number         0  timedate.o ABSOLUTE
    ..\Watch\torch.c                         0x00000000   Number         0  torch.o ABSOLUTE
    ..\Watch\tune.c                          0x00000000   Number         0  tune.o ABSOLUTE
    ..\Watch\tunemaker.c                     0x00000000   Number         0  tunemaker.o ABSOLUTE
    ..\Watch\tunes.c                         0x00000000   Number         0  tunes.o ABSOLUTE
    ..\Watch\ui.c                            0x00000000   Number         0  ui.o ABSOLUTE
    ..\\CORE\\core_cm3.c                     0x00000000   Number         0  core_cm3.o ABSOLUTE
    ..\\SYSTEM\\sys\\sys.c                   0x00000000   Number         0  sys.o ABSOLUTE
    cdcmple.s                                0x00000000   Number         0  cdcmple.o ABSOLUTE
    cdrcmple.s                               0x00000000   Number         0  cdrcmple.o ABSOLUTE
    cfcmple.s                                0x00000000   Number         0  cfcmple.o ABSOLUTE
    cfrcmple.s                               0x00000000   Number         0  cfrcmple.o ABSOLUTE
    dc.s                                     0x00000000   Number         0  dc.o ABSOLUTE
    handlers.s                               0x00000000   Number         0  handlers.o ABSOLUTE
    init.s                                   0x00000000   Number         0  init.o ABSOLUTE
    main.c                                   0x00000000   Number         0  main.o ABSOLUTE
    stm32f10x_it.c                           0x00000000   Number         0  stm32f10x_it.o ABSOLUTE
    system_stm32f10x.c                       0x00000000   Number         0  system_stm32f10x.o ABSOLUTE
    RESET                                    0x08000000   Section      236  startup_stm32f10x_md.o(RESET)
    .ARM.Collect$$$$00000000                 0x080000ec   Section        0  entry.o(.ARM.Collect$$$$00000000)
    .ARM.Collect$$$$00000001                 0x080000ec   Section        4  entry2.o(.ARM.Collect$$$$00000001)
    .ARM.Collect$$$$00000004                 0x080000f0   Section        4  entry5.o(.ARM.Collect$$$$00000004)
    .ARM.Collect$$$$00000008                 0x080000f4   Section        0  entry7b.o(.ARM.Collect$$$$00000008)
    .ARM.Collect$$$$0000000A                 0x080000f4   Section        0  entry8b.o(.ARM.Collect$$$$0000000A)
    .ARM.Collect$$$$0000000B                 0x080000f4   Section        8  entry9a.o(.ARM.Collect$$$$0000000B)
    .ARM.Collect$$$$0000000D                 0x080000fc   Section        0  entry10a.o(.ARM.Collect$$$$0000000D)
    .ARM.Collect$$$$0000000F                 0x080000fc   Section        0  entry11a.o(.ARM.Collect$$$$0000000F)
    .ARM.Collect$$$$00002712                 0x080000fc   Section        4  entry2.o(.ARM.Collect$$$$00002712)
    __lit__00000000                          0x080000fc   Data           4  entry2.o(.ARM.Collect$$$$00002712)
    .text                                    0x08000100   Section        0  main.o(.text)
    .text                                    0x08000254   Section        0  stm32f10x_it.o(.text)
    .text                                    0x08000268   Section        0  system_stm32f10x.o(.text)
    SetSysClockTo72                          0x08000269   Thumb Code   160  system_stm32f10x.o(.text)
    .text                                    0x080003c0   Section        0  led.o(.text)
    _update                                  0x080004d3   Thumb Code    30  led.o(.text)
    .text                                    0x08000508   Section        0  lcd.o(.text)
    .text                                    0x08000580   Section        0  beep.o(.text)
    stop                                     0x080006f1   Thumb Code    38  beep.o(.text)
    .text                                    0x08000728   Section        0  inv_mpu.o(.text)
    set_int_enable                           0x08000729   Thumb Code    80  inv_mpu.o(.text)
    get_st_biases                            0x080014ad   Thumb Code   782  inv_mpu.o(.text)
    accel_self_test                          0x08001f49   Thumb Code   114  inv_mpu.o(.text)
    gyro_self_test                           0x08001fbb   Thumb Code   196  inv_mpu.o(.text)
    get_accel_prod_shift                     0x0800207f   Thumb Code   158  inv_mpu.o(.text)
    .text                                    0x08002144   Section        0  inv_mpu_dmp_motion_driver.o(.text)
    .text                                    0x08002b90   Section        0  mpu6050.o(.text)
    .text                                    0x08002e6c   Section        0  mpuiic.o(.text)
    .text                                    0x080030a0   Section        0  mpu_task.o(.text)
    btnExit                                  0x0800317f   Thumb Code    24  mpu_task.o(.text)
    btnup                                    0x08003197   Thumb Code    28  mpu_task.o(.text)
    btndown                                  0x080031b3   Thumb Code    28  mpu_task.o(.text)
    dso                                      0x080031cf   Thumb Code   202  mpu_task.o(.text)
    draw                                     0x08003299   Thumb Code   170  mpu_task.o(.text)
    .text                                    0x080033c0   Section        0  delay.o(.text)
    .text                                    0x08003458   Section        0  usart.o(.text)
    .text                                    0x0800356c   Section       36  startup_stm32f10x_md.o(.text)
    .text                                    0x08003590   Section        0  stm32f10x_gpio.o(.text)
    .text                                    0x080037f4   Section        0  stm32f10x_rcc.o(.text)
    .text                                    0x08003aac   Section        0  stm32f10x_usart.o(.text)
    .text                                    0x08003dd4   Section        0  misc.o(.text)
    .text                                    0x08003e84   Section        0  stm32f10x_tim.o(.text)
    TI2_Config                               0x08004217   Thumb Code   166  stm32f10x_tim.o(.text)
    TI1_Config                               0x080042cd   Thumb Code    88  stm32f10x_tim.o(.text)
    .text                                    0x08004974   Section        0  alarm.o(.text)
    getNextAlarm                             0x08004987   Thumb Code   154  alarm.o(.text)
    stopAlarm                                0x08004a5f   Thumb Code    40  alarm.o(.text)
    draw                                     0x08004a87   Thumb Code    80  alarm.o(.text)
    toMinutes                                0x08004b5d   Thumb Code    24  alarm.o(.text)
    goingOff                                 0x08004b75   Thumb Code    88  alarm.o(.text)
    .text                                    0x08004bec   Section        0  alarms.o(.text)
    mSelect                                  0x08004bed   Thumb Code    20  alarms.o(.text)
    alarmsDraw                               0x08004c01   Thumb Code   164  alarms.o(.text)
    alarmsUp                                 0x08004ca5   Thumb Code    50  alarms.o(.text)
    alarmsDown                               0x08004cd7   Thumb Code    46  alarms.o(.text)
    selectAlarm                              0x08004d05   Thumb Code   396  alarms.o(.text)
    itemLoader                               0x08004e91   Thumb Code    74  alarms.o(.text)
    getMaxValForSetting                      0x08004f07   Thumb Code    36  alarms.o(.text)
    makeAlarmStr                             0x08004f2b   Thumb Code   104  alarms.o(.text)
    .text                                    0x08004ff0   Section        0  animation.o(.text)
    .text                                    0x080050b8   Section        0  appconfig.o(.text)
    .text                                    0x080050dc   Section        0  buttons.o(.text)
    processButton                            0x08005215   Thumb Code   102  buttons.o(.text)
    bitCount                                 0x0800527b   Thumb Code    22  buttons.o(.text)
    .text                                    0x080052b4   Section        0  diag.o(.text)
    setShowFPS                               0x080052b5   Thumb Code    16  diag.o(.text)
    batteryUpdate                            0x080052c5   Thumb Code     2  diag.o(.text)
    itemLoader                               0x080052c7   Thumb Code   126  diag.o(.text)
    mSelect                                  0x08005345   Thumb Code    30  diag.o(.text)
    .text                                    0x0800541c   Section        0  display.o(.text)
    crt_animation                            0x08005439   Thumb Code   318  display.o(.text)
    .text                                    0x08005638   Section        0  draw.o(.text)
    readPixels                               0x0800596f   Thumb Code    12  draw.o(.text)
    .text                                    0x08005984   Section        0  game1.o(.text)
    btnLeft                                  0x08005985   Thumb Code    10  game1.o(.text)
    game_exit                                0x0800598f   Thumb Code    34  game1.o(.text)
    btnRight                                 0x080059b1   Thumb Code    10  game1.o(.text)
    itemLoader                               0x08005d0d   Thumb Code    54  game1.o(.text)
    mSelect                                  0x08005d43   Thumb Code    20  game1.o(.text)
    game1_meun                               0x08005d57   Thumb Code   194  game1.o(.text)
    btnExit                                  0x08005e19   Thumb Code    34  game1.o(.text)
    .text                                    0x08005ee8   Section        0  game2.o(.text)
    btnDown                                  0x08005ee9   Thumb Code    10  game2.o(.text)
    btnExit                                  0x08005ef3   Thumb Code    28  game2.o(.text)
    btnUp                                    0x08005f0f   Thumb Code     8  game2.o(.text)
    draw                                     0x08005f17   Thumb Code   850  game2.o(.text)
    .text                                    0x08006310   Section        0  game3.o(.text)
    btnBounce                                0x08006345   Thumb Code     8  game3.o(.text)
    btnExit                                  0x0800634d   Thumb Code    28  game3.o(.text)
    btnPause                                 0x08006369   Thumb Code    14  game3.o(.text)
    draw                                     0x08006377   Thumb Code   602  game3.o(.text)
    judgeOverlap                             0x0800663f   Thumb Code    76  game3.o(.text)
    .text                                    0x080066fc   Section        0  games.o(.text)
    itemLoader                               0x080066fd   Thumb Code    50  games.o(.text)
    mSelect                                  0x0800672f   Thumb Code    18  games.o(.text)
    .text                                    0x080067ec   Section        0  global.o(.text)
    .text                                    0x08006804   Section        0  m_display.o(.text)
    thisDraw                                 0x08006805   Thumb Code   100  m_display.o(.text)
    setLEDs                                  0x08006869   Thumb Code    20  m_display.o(.text)
    setFPS                                   0x0800687d   Thumb Code    20  m_display.o(.text)
    setAnimations                            0x08006891   Thumb Code    16  m_display.o(.text)
    setRotate                                0x080068a1   Thumb Code    44  m_display.o(.text)
    setInvert                                0x080068cd   Thumb Code    16  m_display.o(.text)
    setBrightness                            0x080068dd   Thumb Code    40  m_display.o(.text)
    itemLoader                               0x08006905   Thumb Code    14  m_display.o(.text)
    mSelect                                  0x08006913   Thumb Code    30  m_display.o(.text)
    setMenuOptions                           0x08006963   Thumb Code    98  m_display.o(.text)
    .text                                    0x08006a6c   Section        0  m_main.o(.text)
    itemLoader                               0x08006a6d   Thumb Code   102  m_main.o(.text)
    mSelect                                  0x08006ad3   Thumb Code    18  m_main.o(.text)
    mOpen                                    0x08006ae5   Thumb Code    60  m_main.o(.text)
    getItemCount                             0x08006b37   Thumb Code     4  m_main.o(.text)
    .text                                    0x08006bf4   Section        0  menu.o(.text)
    drawTitle                                0x08006c39   Thumb Code    54  menu.o(.text)
    menu_drawIcon                            0x08006c6f   Thumb Code   210  menu.o(.text)
    checkScroll                              0x08006f3d   Thumb Code    28  menu.o(.text)
    doBtn                                    0x08006f91   Thumb Code    40  menu.o(.text)
    loader                                   0x08006fb9   Thumb Code    24  menu.o(.text)
    clear                                    0x08006fd1   Thumb Code    10  menu.o(.text)
    .text                                    0x08007010   Section        0  millis.o(.text)
    .text                                    0x08007108   Section        0  normal.o(.text)
    mpu_show                                 0x08007109   Thumb Code    12  normal.o(.text)
    wifi_show                                0x08007115   Thumb Code    12  normal.o(.text)
    drawTickerNum                            0x08007121   Thumb Code   122  normal.o(.text)
    ticker                                   0x0800719b   Thumb Code   652  normal.o(.text)
    draw                                     0x08007427   Thumb Code   122  normal.o(.text)
    animateIcon                              0x080074bf   Thumb Code    30  normal.o(.text)
    drawDate                                 0x080074dd   Thumb Code   144  normal.o(.text)
    .text                                    0x08007584   Section        0  settings.o(.text)
    itemLoader                               0x08007585   Thumb Code    70  settings.o(.text)
    mSelect                                  0x080075cb   Thumb Code    18  settings.o(.text)
    .text                                    0x08007684   Section        0  sleep.o(.text)
    mDraw                                    0x08007685   Thumb Code    42  sleep.o(.text)
    setTimeout                               0x080076af   Thumb Code    18  sleep.o(.text)
    itemLoader                               0x080076c1   Thumb Code    22  sleep.o(.text)
    mSelect                                  0x080076d7   Thumb Code    30  sleep.o(.text)
    .text                                    0x0800776c   Section        0  sound.o(.text)
    thisdraw                                 0x0800776d   Thumb Code    54  sound.o(.text)
    setVolumeHour                            0x080077a3   Thumb Code    14  sound.o(.text)
    setVolumeAlarm                           0x080077b1   Thumb Code    14  sound.o(.text)
    setVolumeUI                              0x080077bf   Thumb Code    14  sound.o(.text)
    itemLoader                               0x080077cd   Thumb Code    14  sound.o(.text)
    mSelect                                  0x080077db   Thumb Code    30  sound.o(.text)
    setVolume                                0x0800782b   Thumb Code    12  sound.o(.text)
    setMenuOptions                           0x08007837   Thumb Code    58  sound.o(.text)
    .text                                    0x080078c8   Section        0  stopwatch.o(.text)
    btnExit                                  0x080078c9   Thumb Code    14  stopwatch.o(.text)
    btnStartStop                             0x080078d7   Thumb Code    32  stopwatch.o(.text)
    btnReset                                 0x080078f7   Thumb Code    18  stopwatch.o(.text)
    draw                                     0x08007909   Thumb Code   344  stopwatch.o(.text)
    .text                                    0x08007ad8   Section        0  time.o(.text)
    .text                                    0x08007cac   Section        0  timedate.o(.text)
    saveTimeDate                             0x08007cad   Thumb Code    38  timedate.o(.text)
    mUp                                      0x08007cd3   Thumb Code    30  timedate.o(.text)
    mSelect                                  0x08007cf1   Thumb Code    22  timedate.o(.text)
    mDown                                    0x08007d07   Thumb Code    30  timedate.o(.text)
    timeDateDraw                             0x08007d25   Thumb Code   184  timedate.o(.text)
    getMaxValForSetting                      0x08007ddd   Thumb Code    56  timedate.o(.text)
    timeDataUp                               0x08007e15   Thumb Code    56  timedate.o(.text)
    timeDataDown                             0x08007e4d   Thumb Code    62  timedate.o(.text)
    selectTime                               0x08007e8b   Thumb Code   124  timedate.o(.text)
    selectDate                               0x08007f07   Thumb Code    98  timedate.o(.text)
    itemLoader                               0x08007f69   Thumb Code   124  timedate.o(.text)
    endSelect                                0x0800802d   Thumb Code    26  timedate.o(.text)
    beginSelect                              0x08008047   Thumb Code    22  timedate.o(.text)
    .text                                    0x080080f8   Section        0  torch.o(.text)
    btnExit                                  0x080080f9   Thumb Code    14  torch.o(.text)
    btnFlashRate                             0x08008107   Thumb Code    40  torch.o(.text)
    draw                                     0x0800812f   Thumb Code    68  torch.o(.text)
    .text                                    0x080081ac   Section        0  tune.o(.text)
    next                                     0x080081ad   Thumb Code    52  tune.o(.text)
    .text                                    0x0800821c   Section        0  tunemaker.o(.text)
    chose_tone                               0x0800821d   Thumb Code    78  tunemaker.o(.text)
    down                                     0x0800826b   Thumb Code    38  tunemaker.o(.text)
    select                                   0x08008291   Thumb Code    26  tunemaker.o(.text)
    up                                       0x080082ab   Thumb Code    36  tunemaker.o(.text)
    draw                                     0x080083a1   Thumb Code   390  tunemaker.o(.text)
    .text                                    0x080085a8   Section        0  ui.o(.text)
    .text                                    0x080085c4   Section        0  pwrmgr.o(.text)
    .text                                    0x08008634   Section        0  oled_basic.o(.text)
    .text                                    0x08008638   Section        0  oled_config.o(.text)
    .text                                    0x08008648   Section        0  oled_driver.o(.text)
    .text                                    0x080088dc   Section        0  gui_log_console.o(.text)
    .text                                    0x08008bdc   Section        0  usart2.o(.text)
    .text                                    0x08008d3c   Section        0  wait_data_clock.o(.text)
    .text                                    0x08008d90   Section        0  wifi.o(.text)
    .text                                    0x080096ac   Section        0  wifi_task.o(.text)
    btnExit                                  0x080096ad   Thumb Code    20  wifi_task.o(.text)
    btnup                                    0x080096c1   Thumb Code    14  wifi_task.o(.text)
    btndown                                  0x080096cf   Thumb Code    34  wifi_task.o(.text)
    draw                                     0x0800971f   Thumb Code   116  wifi_task.o(.text)
    .text                                    0x0800982c   Section        0  wifi_cmd_task.o(.text)
    cmd_start                                0x0800982d   Thumb Code    34  wifi_cmd_task.o(.text)
    itemLoader                               0x080098ab   Thumb Code   152  wifi_cmd_task.o(.text)
    mSelect                                  0x08009943   Thumb Code    24  wifi_cmd_task.o(.text)
    .text                                    0x08009a70   Section        0  txt_viewer.o(.text)
    scroll_down                              0x08009c77   Thumb Code    12  txt_viewer.o(.text)
    scroll_up                                0x08009c83   Thumb Code    12  txt_viewer.o(.text)
    scroll_left                              0x08009c8f   Thumb Code    12  txt_viewer.o(.text)
    scroll_right                             0x08009c9b   Thumb Code    12  txt_viewer.o(.text)
    win_up                                   0x08009ca7   Thumb Code    12  txt_viewer.o(.text)
    win_down                                 0x08009cb3   Thumb Code    12  txt_viewer.o(.text)
    win_left                                 0x08009cbf   Thumb Code    12  txt_viewer.o(.text)
    win_right                                0x08009ccb   Thumb Code    12  txt_viewer.o(.text)
    draw                                     0x08009ce9   Thumb Code    68  txt_viewer.o(.text)
    itemLoader                               0x08009dc7   Thumb Code   148  txt_viewer.o(.text)
    mSelect                                  0x08009e5b   Thumb Code    24  txt_viewer.o(.text)
    txtViewer_meun                           0x08009e73   Thumb Code   312  txt_viewer.o(.text)
    btnExit                                  0x08009fab   Thumb Code    14  txt_viewer.o(.text)
    txtViewer_printOneChar                   0x08009fb9   Thumb Code    38  txt_viewer.o(.text)
    getNext                                  0x08009fdf   Thumb Code    16  txt_viewer.o(.text)
    .text                                    0x0800a008   Section        0  ldiv.o(.text)
    .text                                    0x0800a06c   Section        0  rand.o(.text)
    .text                                    0x0800a090   Section        0  memcpya.o(.text)
    .text                                    0x0800a0b4   Section        0  memseta.o(.text)
    .text                                    0x0800a0d8   Section        0  strcat.o(.text)
    .text                                    0x0800a0f0   Section        0  strstr.o(.text)
    .text                                    0x0800a114   Section        0  strlen.o(.text)
    .text                                    0x0800a122   Section        0  memcmp.o(.text)
    .text                                    0x0800a13c   Section        0  strcpy.o(.text)
    .text                                    0x0800a14e   Section        0  calloc.o(.text)
    .text                                    0x0800a16a   Section        0  fadd.o(.text)
    .text                                    0x0800a21a   Section        0  fmul.o(.text)
    .text                                    0x0800a27e   Section        0  fdiv.o(.text)
    .text                                    0x0800a2fa   Section        0  fscalb.o(.text)
    .text                                    0x0800a312   Section        0  dadd.o(.text)
    .text                                    0x0800a460   Section        0  dmul.o(.text)
    .text                                    0x0800a544   Section        0  ddiv.o(.text)
    .text                                    0x0800a622   Section        0  dscalb.o(.text)
    .text                                    0x0800a650   Section        0  fflti.o(.text)
    .text                                    0x0800a662   Section        0  ffltui.o(.text)
    .text                                    0x0800a66c   Section        0  dflti.o(.text)
    .text                                    0x0800a68e   Section        0  dfltui.o(.text)
    .text                                    0x0800a6a8   Section        0  ffixi.o(.text)
    .text                                    0x0800a6da   Section        0  ffixui.o(.text)
    .text                                    0x0800a702   Section        0  dfixui.o(.text)
    .text                                    0x0800a734   Section        0  f2d.o(.text)
    .text                                    0x0800a75c   Section       48  cdcmple.o(.text)
    .text                                    0x0800a78c   Section        0  d2f.o(.text)
    .text                                    0x0800a7c4   Section       20  cfcmple.o(.text)
    .text                                    0x0800a7d8   Section       20  cfrcmple.o(.text)
    .text                                    0x0800a7ec   Section        0  uidiv.o(.text)
    .text                                    0x0800a818   Section        0  uldiv.o(.text)
    .text                                    0x0800a87a   Section        0  llshl.o(.text)
    .text                                    0x0800a898   Section        0  llushr.o(.text)
    .text                                    0x0800a8b8   Section        0  llsshr.o(.text)
    .text                                    0x0800a8dc   Section        0  iusefp.o(.text)
    .text                                    0x0800a8dc   Section        0  fepilogue.o(.text)
    .text                                    0x0800a94a   Section        0  depilogue.o(.text)
    .text                                    0x0800aa04   Section        0  dfixul.o(.text)
    .text                                    0x0800aa34   Section       48  cdrcmple.o(.text)
    .text                                    0x0800aa64   Section       36  init.o(.text)
    .text                                    0x0800aa88   Section        0  dsqrt.o(.text)
    .text                                    0x0800ab2a   Section        0  dfixi.o(.text)
    .text                                    0x0800ab68   Section        0  __dczerorl2.o(.text)
    i.__0printf                              0x0800abc0   Section        0  printfa.o(i.__0printf)
    i.__0sprintf                             0x0800abe0   Section        0  printfa.o(i.__0sprintf)
    i.__0vsprintf                            0x0800ac08   Section        0  printfa.o(i.__0vsprintf)
    i.__ARM_fpclassify                       0x0800ac2c   Section        0  fpclassify.o(i.__ARM_fpclassify)
    i.__ieee754_rem_pio2                     0x0800ac54   Section        0  rred.o(i.__ieee754_rem_pio2)
    i.__kernel_cos                           0x0800afdc   Section        0  cos_i.o(i.__kernel_cos)
    i.__kernel_poly                          0x0800b0d8   Section        0  poly.o(i.__kernel_poly)
    i.__kernel_sin                           0x0800b184   Section        0  sin_i.o(i.__kernel_sin)
    i.__mathlib_dbl_infnan                   0x0800b270   Section        0  dunder.o(i.__mathlib_dbl_infnan)
    i.__mathlib_dbl_infnan2                  0x0800b276   Section        0  dunder.o(i.__mathlib_dbl_infnan2)
    i.__mathlib_dbl_invalid                  0x0800b27a   Section        0  dunder.o(i.__mathlib_dbl_invalid)
    i.__mathlib_dbl_underflow                0x0800b288   Section        0  dunder.o(i.__mathlib_dbl_underflow)
    i.__scatterload_copy                     0x0800b298   Section       14  handlers.o(i.__scatterload_copy)
    i.__scatterload_null                     0x0800b2a6   Section        2  handlers.o(i.__scatterload_null)
    i.__scatterload_zeroinit                 0x0800b2a8   Section       14  handlers.o(i.__scatterload_zeroinit)
    i.__set_errno                            0x0800b2b8   Section        0  errno.o(i.__set_errno)
    i._fp_digits                             0x0800b2c4   Section        0  printfa.o(i._fp_digits)
    _fp_digits                               0x0800b2c5   Thumb Code   366  printfa.o(i._fp_digits)
    i._printf_core                           0x0800b448   Section        0  printfa.o(i._printf_core)
    _printf_core                             0x0800b449   Thumb Code  1744  printfa.o(i._printf_core)
    i._printf_post_padding                   0x0800bb24   Section        0  printfa.o(i._printf_post_padding)
    _printf_post_padding                     0x0800bb25   Thumb Code    36  printfa.o(i._printf_post_padding)
    i._printf_pre_padding                    0x0800bb48   Section        0  printfa.o(i._printf_pre_padding)
    _printf_pre_padding                      0x0800bb49   Thumb Code    46  printfa.o(i._printf_pre_padding)
    i._sputc                                 0x0800bb76   Section        0  printfa.o(i._sputc)
    _sputc                                   0x0800bb77   Thumb Code    10  printfa.o(i._sputc)
    i.asin                                   0x0800bb80   Section        0  asin.o(i.asin)
    i.atan                                   0x0800bdf0   Section        0  atan.o(i.atan)
    i.atan2                                  0x0800c010   Section        0  atan2.o(i.atan2)
    i.free                                   0x0800c190   Section        0  malloc.o(i.free)
    i.malloc                                 0x0800c1e0   Section        0  malloc.o(i.malloc)
    i.sin                                    0x0800c24c   Section        0  sin.o(i.sin)
    i.sqrt                                   0x0800c2ec   Section        0  sqrt.o(i.sqrt)
    .constdata                               0x0800c338   Section      236  main.o(.constdata)
    .constdata                               0x0800c424   Section     1000  main.o(.constdata)
    .constdata                               0x0800c80c   Section       27  inv_mpu.o(.constdata)
    .constdata                               0x0800c828   Section       12  inv_mpu.o(.constdata)
    .constdata                               0x0800c834   Section       40  inv_mpu.o(.constdata)
    .constdata                               0x0800c85c   Section     3062  inv_mpu_dmp_motion_driver.o(.constdata)
    dmp_memory                               0x0800c85c   Data        3062  inv_mpu_dmp_motion_driver.o(.constdata)
    .constdata                               0x0800d452   Section       17  game1.o(.constdata)
    ballImg                                  0x0800d452   Data           2  game1.o(.constdata)
    block                                    0x0800d454   Data           3  game1.o(.constdata)
    platform                                 0x0800d457   Data          12  game1.o(.constdata)
    .constdata                               0x0800d463   Section       38  game2.o(.constdata)
    roadMarking                              0x0800d463   Data           8  game2.o(.constdata)
    carImg                                   0x0800d46b   Data          30  game2.o(.constdata)
    .constdata                               0x0800d48c   Section       48  game3.o(.constdata)
    tube_top                                 0x0800d48c   Data          18  game3.o(.constdata)
    tube                                     0x0800d49e   Data          16  game3.o(.constdata)
    .constdata                               0x0800d4bc   Section       30  game3.o(.constdata)
    thingImg                                 0x0800d4bc   Data          30  game3.o(.constdata)
    .constdata                               0x0800d4da   Section        5  menu.o(.constdata)
    .constdata                               0x0800d4df   Section        8  resources.o(.constdata)
    .constdata                               0x0800d4e7   Section       28  resources.o(.constdata)
    .constdata                               0x0800d503   Section       48  resources.o(.constdata)
    .constdata                               0x0800d533   Section        7  resources.o(.constdata)
    .constdata                               0x0800d53a   Section        8  resources.o(.constdata)
    .constdata                               0x0800d542   Section      128  resources.o(.constdata)
    .constdata                               0x0800d5c2   Section      128  resources.o(.constdata)
    .constdata                               0x0800d642   Section      128  resources.o(.constdata)
    .constdata                               0x0800d6c2   Section      128  resources.o(.constdata)
    .constdata                               0x0800d742   Section      128  resources.o(.constdata)
    .constdata                               0x0800d7c2   Section      512  resources.o(.constdata)
    .constdata                               0x0800d9c2   Section      256  resources.o(.constdata)
    .constdata                               0x0800dac2   Section      128  resources.o(.constdata)
    .constdata                               0x0800db42   Section      256  resources.o(.constdata)
    .constdata                               0x0800dc42   Section      512  resources.o(.constdata)
    .constdata                               0x0800de42   Section      128  resources.o(.constdata)
    .constdata                               0x0800dec2   Section      128  resources.o(.constdata)
    .constdata                               0x0800df42   Section      128  resources.o(.constdata)
    .constdata                               0x0800dfc2   Section       16  resources.o(.constdata)
    .constdata                               0x0800dfd2   Section       16  resources.o(.constdata)
    .constdata                               0x0800dfe2   Section        8  resources.o(.constdata)
    .constdata                               0x0800dfea   Section      485  resources.o(.constdata)
    .constdata                               0x0800e1cf   Section      570  resources.o(.constdata)
    .constdata                               0x0800e409   Section      220  resources.o(.constdata)
    .constdata                               0x0800e4e5   Section       18  resources.o(.constdata)
    .constdata                               0x0800e4f7   Section       36  resources.o(.constdata)
    .constdata                               0x0800e51b   Section       36  resources.o(.constdata)
    .constdata                               0x0800e53f   Section      128  resources.o(.constdata)
    .constdata                               0x0800e5bf   Section      128  resources.o(.constdata)
    .constdata                               0x0800e63f   Section      128  resources.o(.constdata)
    .constdata                               0x0800e6bf   Section      128  resources.o(.constdata)
    .constdata                               0x0800e73f   Section      128  resources.o(.constdata)
    .constdata                               0x0800e7bf   Section      128  resources.o(.constdata)
    .constdata                               0x0800e83f   Section      128  resources.o(.constdata)
    .constdata                               0x0800e8bf   Section      128  resources.o(.constdata)
    .constdata                               0x0800e93f   Section       12  time.o(.constdata)
    monthDayCount                            0x0800e93f   Data          12  time.o(.constdata)
    .constdata                               0x0800e94c   Section     4416  tunemaker.o(.constdata)
    faces                                    0x0800e94c   Data          96  tunemaker.o(.constdata)
    vertices                                 0x0800e9ac   Data        4320  tunemaker.o(.constdata)
    .constdata                               0x0800fa8c   Section       16  tunes.o(.constdata)
    .constdata                               0x0800fa9c   Section       16  tunes.o(.constdata)
    .constdata                               0x0800faac   Section       16  tunes.o(.constdata)
    .constdata                               0x0800fac0   Section       80  asin.o(.constdata)
    pS                                       0x0800fac0   Data          48  asin.o(.constdata)
    qS                                       0x0800faf0   Data          32  asin.o(.constdata)
    .constdata                               0x0800fb10   Section      152  atan.o(.constdata)
    atanhi                                   0x0800fb10   Data          32  atan.o(.constdata)
    atanlo                                   0x0800fb30   Data          32  atan.o(.constdata)
    aTodd                                    0x0800fb50   Data          40  atan.o(.constdata)
    aTeven                                   0x0800fb78   Data          48  atan.o(.constdata)
    .constdata                               0x0800fba8   Section       48  cos_i.o(.constdata)
    C                                        0x0800fba8   Data          48  cos_i.o(.constdata)
    .constdata                               0x0800fbd8   Section        8  qnan.o(.constdata)
    .constdata                               0x0800fbe0   Section      200  rred.o(.constdata)
    pio2s                                    0x0800fbe0   Data          48  rred.o(.constdata)
    twooverpi                                0x0800fc10   Data         152  rred.o(.constdata)
    .constdata                               0x0800fca8   Section       40  sin_i.o(.constdata)
    S                                        0x0800fca8   Data          40  sin_i.o(.constdata)
    .conststring                             0x0800fcd0   Section       77  inv_mpu.o(.conststring)
    .conststring                             0x0800fd20   Section      262  wifi.o(.conststring)
    .conststring                             0x0800fe28   Section      208  txt_viewer.o(.conststring)
    .data                                    0x20000000   Section       20  system_stm32f10x.o(.data)
    .data                                    0x20000014   Section       20  led.o(.data)
    ledRed                                   0x20000018   Data           8  led.o(.data)
    ledGreen                                 0x20000020   Data           8  led.o(.data)
    .data                                    0x20000028   Section       12  beep.o(.data)
    prio                                     0x20000028   Data           1  beep.o(.data)
    buzzLen                                  0x2000002a   Data           2  beep.o(.data)
    startTime                                0x2000002c   Data           4  beep.o(.data)
    onFinish                                 0x20000030   Data           4  beep.o(.data)
    .data                                    0x20000034   Section       53  inv_mpu.o(.data)
    st                                       0x20000034   Data          44  inv_mpu.o(.data)
    gyro_orientation                         0x20000060   Data           9  inv_mpu.o(.data)
    .data                                    0x20000069   Section        1  mpu6050.o(.data)
    .data                                    0x2000006c   Section       28  mpu_task.o(.data)
    i                                        0x2000006f   Data           1  mpu_task.o(.data)
    showindex                                0x20000070   Data           2  mpu_task.o(.data)
    saveindex                                0x20000072   Data           2  mpu_task.o(.data)
    lastUpdate                               0x20000074   Data           4  mpu_task.o(.data)
    x                                        0x20000078   Data           4  mpu_task.o(.data)
    .data                                    0x20000088   Section        4  delay.o(.data)
    fac_us                                   0x20000088   Data           1  delay.o(.data)
    fac_ms                                   0x2000008a   Data           2  delay.o(.data)
    .data                                    0x2000008c   Section        2  usart.o(.data)
    .data                                    0x20000090   Section        4  usart.o(.data)
    .data                                    0x20000094   Section       20  stm32f10x_rcc.o(.data)
    ADCPrescTable                            0x20000094   Data           4  stm32f10x_rcc.o(.data)
    APBAHBPrescTable                         0x20000098   Data          16  stm32f10x_rcc.o(.data)
    .data                                    0x200000a8   Section       50  alarm.o(.data)
    ledFlash                                 0x200000a8   Data           1  alarm.o(.data)
    nextAlarm                                0x200000a9   Data           1  alarm.o(.data)
    nextAlarmDay                             0x200000aa   Data           1  alarm.o(.data)
    alarmSetOff                              0x200000ab   Data           1  alarm.o(.data)
    oldDrawFunc                              0x200000ac   Data           4  alarm.o(.data)
    oldBtn1Func                              0x200000b0   Data           4  alarm.o(.data)
    oldBtn2Func                              0x200000b4   Data           4  alarm.o(.data)
    oldBtn3Func                              0x200000b8   Data           4  alarm.o(.data)
    eepAlarms                                0x200000bc   Data          30  alarm.o(.data)
    .data                                    0x200000dc   Section       16  alarms.o(.data)
    dayBit                                   0x200000dc   Data           1  alarms.o(.data)
    wasPM                                    0x200000dd   Data           1  alarms.o(.data)
    alarm                                    0x200000de   Data           3  alarms.o(.data)
    prevMenuData                             0x200000e4   Data           8  alarms.o(.data)
    .data                                    0x200000ec   Section        4  buttons.o(.data)
    lastUpdate                               0x200000ec   Data           4  buttons.o(.data)
    .data                                    0x200000f0   Section        8  diag.o(.data)
    prevMenuData                             0x200000f0   Data           8  diag.o(.data)
    .data                                    0x200000f8   Section       22  display.o(.data)
    fpsMs                                    0x200000f9   Data           1  display.o(.data)
    fpsms                                    0x200000fa   Data           1  display.o(.data)
    lastDraw                                 0x200000fc   Data           4  display.o(.data)
    drawFunc                                 0x20000100   Data           4  display.o(.data)
    func                                     0x20000104   Data           4  display.o(.data)
    crt_anim                                 0x20000108   Data           6  display.o(.data)
    .data                                    0x20000110   Section       20  game1.o(.data)
    automode                                 0x20000110   Data           1  game1.o(.data)
    uptMove                                  0x20000111   Data           1  game1.o(.data)
    lives                                    0x20000112   Data           1  game1.o(.data)
    platformX                                0x20000113   Data           1  game1.o(.data)
    gameEnded                                0x20000114   Data           1  game1.o(.data)
    score                                    0x20000116   Data           2  game1.o(.data)
    blocks                                   0x20000118   Data           4  game1.o(.data)
    prevMenuData                             0x2000011c   Data           8  game1.o(.data)
    .data                                    0x20000124   Section       20  game2.o(.data)
    newHighscore                             0x20000124   Data           1  game2.o(.data)
    quakeY                                   0x20000125   Data           1  game2.o(.data)
    uptMove                                  0x20000126   Data           1  game2.o(.data)
    lives                                    0x20000127   Data           1  game2.o(.data)
    highscore                                0x20000128   Data           2  game2.o(.data)
    score                                    0x2000012a   Data           2  game2.o(.data)
    myCar                                    0x2000012c   Data           3  game2.o(.data)
    dotX                                     0x2000012f   Data           3  game2.o(.data)
    hitTime                                  0x20000134   Data           4  game2.o(.data)
    .data                                    0x20000138   Section       40  game3.o(.data)
    gameState                                0x20000138   Data           1  game3.o(.data)
    tubeOffset                               0x20000139   Data           1  game3.o(.data)
    bounce                                   0x2000013a   Data           1  game3.o(.data)
    newHighscore                             0x2000013b   Data           1  game3.o(.data)
    overlap                                  0x2000013c   Data           1  game3.o(.data)
    highscore                                0x2000013e   Data           2  game3.o(.data)
    score                                    0x20000140   Data           2  game3.o(.data)
    y                                        0x20000148   Data           8  game3.o(.data)
    yVel                                     0x20000150   Data           8  game3.o(.data)
    tubes                                    0x20000158   Data           8  game3.o(.data)
    .data                                    0x20000160   Section        8  games.o(.data)
    prevMenuData                             0x20000160   Data           8  games.o(.data)
    .data                                    0x20000168   Section        8  m_display.o(.data)
    prevMenuData                             0x20000168   Data           8  m_display.o(.data)
    .data                                    0x20000170   Section        8  m_main.o(.data)
    prevMenuData                             0x20000170   Data           8  m_main.o(.data)
    .data                                    0x20000178   Section        8  menu.o(.data)
    operation                                0x20000178   Data           3  menu.o(.data)
    animX                                    0x2000017c   Data           4  menu.o(.data)
    .data                                    0x20000180   Section        2  menu.o(.data)
    .data                                    0x20000184   Section        4  millis.o(.data)
    .data                                    0x20000188   Section       13  normal.o(.data)
    usbImagePos                              0x20000188   Data           1  normal.o(.data)
    chargeImagePos                           0x20000189   Data           1  normal.o(.data)
    yPos                                     0x2000018a   Data           1  normal.o(.data)
    yPos_secs                                0x2000018b   Data           1  normal.o(.data)
    moving                                   0x2000018c   Data           1  normal.o(.data)
    hour2                                    0x2000018d   Data           1  normal.o(.data)
    mins                                     0x2000018e   Data           1  normal.o(.data)
    secs                                     0x2000018f   Data           1  normal.o(.data)
    moving2                                  0x20000190   Data           5  normal.o(.data)
    .data                                    0x20000198   Section        8  settings.o(.data)
    prevMenuData                             0x20000198   Data           8  settings.o(.data)
    .data                                    0x200001a0   Section        8  sleep.o(.data)
    prevMenuData                             0x200001a0   Data           8  sleep.o(.data)
    .data                                    0x200001a8   Section        8  sound.o(.data)
    prevMenuData                             0x200001a8   Data           8  sound.o(.data)
    .data                                    0x200001b0   Section       12  stopwatch.o(.data)
    state                                    0x200001b0   Data           1  stopwatch.o(.data)
    timer                                    0x200001b4   Data           4  stopwatch.o(.data)
    lastMS                                   0x200001b8   Data           4  stopwatch.o(.data)
    .data                                    0x200001bc   Section        9  time.o(.data)
    .data                                    0x200001c8   Section       20  timedate.o(.data)
    timeMode                                 0x200001c8   Data           1  timedate.o(.data)
    saved                                    0x200001c9   Data           1  timedate.o(.data)
    prevMenuData                             0x200001cc   Data           8  timedate.o(.data)
    timeDateSet                              0x200001d4   Data           8  timedate.o(.data)
    .data                                    0x200001dc   Section        8  torch.o(.data)
    invert                                   0x200001dc   Data           1  torch.o(.data)
    strobe                                   0x200001de   Data           2  torch.o(.data)
    lastStrobe                               0x200001e0   Data           4  torch.o(.data)
    .data                                    0x200001e4   Section        8  tune.o(.data)
    idx                                      0x200001e4   Data           1  tune.o(.data)
    vol                                      0x200001e5   Data           1  tune.o(.data)
    prio                                     0x200001e6   Data           1  tune.o(.data)
    tune                                     0x200001e8   Data           4  tune.o(.data)
    .data                                    0x200001ec   Section       16  tunemaker.o(.data)
    idx                                      0x200001f1   Data           1  tunemaker.o(.data)
    _idx                                     0x200001f2   Data           1  tunemaker.o(.data)
    .data                                    0x200001fc   Section        9  pwrmgr.o(.data)
    systemState                              0x200001fd   Data           1  pwrmgr.o(.data)
    userState                                0x200001fe   Data           1  pwrmgr.o(.data)
    active                                   0x200001ff   Data           6  pwrmgr.o(.data)
    .data                                    0x20000206   Section       12  gui_log_console.o(.data)
    index                                    0x20000209   Data           1  gui_log_console.o(.data)
    last_str_length                          0x2000020a   Data           1  gui_log_console.o(.data)
    deal_ok                                  0x2000020d   Data           1  gui_log_console.o(.data)
    .data                                    0x20000212   Section        1  usart2.o(.data)
    .data                                    0x20000214   Section        4  usart2.o(.data)
    .data                                    0x20000218   Section        2  wait_data_clock.o(.data)
    .data                                    0x2000021c   Section       26  wifi.o(.data)
    time_cnt                                 0x2000021c   Data           2  wifi.o(.data)
    .data                                    0x20000236   Section        4  wifi_task.o(.data)
    .data                                    0x2000023c   Section       12  wifi_cmd_task.o(.data)
    time                                     0x2000023e   Data           2  wifi_cmd_task.o(.data)
    lastUpdate                               0x20000240   Data           4  wifi_cmd_task.o(.data)
    ondoing                                  0x20000244   Data           4  wifi_cmd_task.o(.data)
    .data                                    0x20000248   Section       20  txt_viewer.o(.data)
    prevMenuData                             0x20000254   Data           8  txt_viewer.o(.data)
    .data                                    0x2000025c   Section        4  rand.o(.data)
    _rand_state                              0x2000025c   Data           4  rand.o(.data)
    .data                                    0x20000260   Section        4  mvars.o(.data)
    .data                                    0x20000264   Section        4  mvars.o(.data)
    .data                                    0x20000268   Section        4  errno.o(.data)
    _errno                                   0x20000268   Data           4  errno.o(.data)
    .bss                                     0x2000026c   Section     1024  lcd.o(.bss)
    .bss                                     0x2000066c   Section       16  inv_mpu_dmp_motion_driver.o(.bss)
    dmp                                      0x2000066c   Data          16  inv_mpu_dmp_motion_driver.o(.bss)
    .bss                                     0x2000067c   Section     1024  mpu_task.o(.bss)
    buf                                      0x2000067c   Data        1024  mpu_task.o(.bss)
    .bss                                     0x20000a7c   Section      200  usart.o(.bss)
    .bss                                     0x20000b44   Section       12  animation.o(.bss)
    animationStatus                          0x20000b44   Data          12  animation.o(.bss)
    .bss                                     0x20000b50   Section       12  appconfig.o(.bss)
    .bss                                     0x20000b5c   Section       48  buttons.o(.bss)
    buttons                                  0x20000b5c   Data          48  buttons.o(.bss)
    .bss                                     0x20000b8c   Section       16  game1.o(.bss)
    ball                                     0x20000b8c   Data          16  game1.o(.bss)
    .bss                                     0x20000b9c   Section        9  game2.o(.bss)
    cars                                     0x20000b9c   Data           9  game2.o(.bss)
    .bss                                     0x20000ba5   Section       64  game3.o(.bss)
    .bss                                     0x20000be8   Section       36  menu.o(.bss)
    .bss                                     0x20000c0c   Section        9  time.o(.bss)
    buff                                     0x20000c0c   Data           9  time.o(.bss)
    .bss                                     0x20000c15   Section      536  tunemaker.o(.bss)
    .bss                                     0x20000e2d   Section     2024  gui_log_console.o(.bss)
    .bss                                     0x20001618   Section     2048  usart2.o(.bss)
    .bss                                     0x20001e18   Section     1024  wifi.o(.bss)
    .bss                                     0x20002218   Section       28  txt_viewer.o(.bss)
    HEAP                                     0x20002238   Section      512  startup_stm32f10x_md.o(HEAP)
    STACK                                    0x20002438   Section     1024  startup_stm32f10x_md.o(STACK)

    Global Symbols

    Symbol Name                              Value     Ov Type        Size  Object(Section)

    BuildAttributes$$THM_ISAv4$P$D$K$B$S$PE$A:L22UL41UL21$X:L11$S22US41US21$IEEE1$IW$USESV6$~STKCKD$USESV7$~SHL$OTIME$ROPI$IEEEX$EBA8$MICROLIB$REQ8$PRES8$EABIv2 0x00000000   Number         0  anon$$obj.o ABSOLUTE
    __ARM_use_no_argv                        0x00000000   Number         0  main.o ABSOLUTE
    __use_no_errno                           0x00000000   Number         0  useno.o ABSOLUTE
    __use_no_exception_handling              0x00000000   Number         0  useno.o ABSOLUTE
    __use_no_fp                              0x00000000   Number         0  useno.o ABSOLUTE
    __use_no_heap                            0x00000000   Number         0  useno.o ABSOLUTE
    __use_no_heap_region                     0x00000000   Number         0  useno.o ABSOLUTE
    __use_no_semihosting                     0x00000000   Number         0  useno.o ABSOLUTE
    __use_no_semihosting_swi                 0x00000000   Number         0  useno.o ABSOLUTE
    __use_no_signal_handling                 0x00000000   Number         0  useno.o ABSOLUTE
    _printf_a                                0x00000000   Number         0  stubs.o ABSOLUTE
    _printf_c                                0x00000000   Number         0  stubs.o ABSOLUTE
    _printf_charcount                        0x00000000   Number         0  stubs.o ABSOLUTE
    _printf_d                                0x00000000   Number         0  stubs.o ABSOLUTE
    _printf_e                                0x00000000   Number         0  stubs.o ABSOLUTE
    _printf_f                                0x00000000   Number         0  stubs.o ABSOLUTE
    _printf_flags                            0x00000000   Number         0  stubs.o ABSOLUTE
    _printf_fp_dec                           0x00000000   Number         0  stubs.o ABSOLUTE
    _printf_fp_hex                           0x00000000   Number         0  stubs.o ABSOLUTE
    _printf_g                                0x00000000   Number         0  stubs.o ABSOLUTE
    _printf_i                                0x00000000   Number         0  stubs.o ABSOLUTE
    _printf_int_dec                          0x00000000   Number         0  stubs.o ABSOLUTE
    _printf_l                                0x00000000   Number         0  stubs.o ABSOLUTE
    _printf_lc                               0x00000000   Number         0  stubs.o ABSOLUTE
    _printf_ll                               0x00000000   Number         0  stubs.o ABSOLUTE
    _printf_lld                              0x00000000   Number         0  stubs.o ABSOLUTE
    _printf_lli                              0x00000000   Number         0  stubs.o ABSOLUTE
    _printf_llo                              0x00000000   Number         0  stubs.o ABSOLUTE
    _printf_llu                              0x00000000   Number         0  stubs.o ABSOLUTE
    _printf_llx                              0x00000000   Number         0  stubs.o ABSOLUTE
    _printf_longlong_dec                     0x00000000   Number         0  stubs.o ABSOLUTE
    _printf_longlong_hex                     0x00000000   Number         0  stubs.o ABSOLUTE
    _printf_longlong_oct                     0x00000000   Number         0  stubs.o ABSOLUTE
    _printf_ls                               0x00000000   Number         0  stubs.o ABSOLUTE
    _printf_mbtowc                           0x00000000   Number         0  stubs.o ABSOLUTE
    _printf_n                                0x00000000   Number         0  stubs.o ABSOLUTE
    _printf_o                                0x00000000   Number         0  stubs.o ABSOLUTE
    _printf_p                                0x00000000   Number         0  stubs.o ABSOLUTE
    _printf_percent                          0x00000000   Number         0  stubs.o ABSOLUTE
    _printf_pre_padding                      0x00000000   Number         0  stubs.o ABSOLUTE
    _printf_return_value                     0x00000000   Number         0  stubs.o ABSOLUTE
    _printf_s                                0x00000000   Number         0  stubs.o ABSOLUTE
    _printf_sizespec                         0x00000000   Number         0  stubs.o ABSOLUTE
    _printf_str                              0x00000000   Number         0  stubs.o ABSOLUTE
    _printf_truncate_signed                  0x00000000   Number         0  stubs.o ABSOLUTE
    _printf_truncate_unsigned                0x00000000   Number         0  stubs.o ABSOLUTE
    _printf_u                                0x00000000   Number         0  stubs.o ABSOLUTE
    _printf_wc                               0x00000000   Number         0  stubs.o ABSOLUTE
    _printf_wctomb                           0x00000000   Number         0  stubs.o ABSOLUTE
    _printf_widthprec                        0x00000000   Number         0  stubs.o ABSOLUTE
    _printf_x                                0x00000000   Number         0  stubs.o ABSOLUTE
    __cpp_initialize__aeabi_                  - Undefined Weak Reference
    __cxa_finalize                            - Undefined Weak Reference
    _clock_init                               - Undefined Weak Reference
    _microlib_exit                            - Undefined Weak Reference
    __Vectors_Size                           0x000000ec   Number         0  startup_stm32f10x_md.o ABSOLUTE
    __Vectors                                0x08000000   Data           4  startup_stm32f10x_md.o(RESET)
    __Vectors_End                            0x080000ec   Data           0  startup_stm32f10x_md.o(RESET)
    __main                                   0x080000ed   Thumb Code     0  entry.o(.ARM.Collect$$$$00000000)
    _main_stk                                0x080000ed   Thumb Code     0  entry2.o(.ARM.Collect$$$$00000001)
    _main_scatterload                        0x080000f1   Thumb Code     0  entry5.o(.ARM.Collect$$$$00000004)
    __main_after_scatterload                 0x080000f5   Thumb Code     0  entry5.o(.ARM.Collect$$$$00000004)
    _main_clock                              0x080000f5   Thumb Code     0  entry7b.o(.ARM.Collect$$$$00000008)
    _main_cpp_init                           0x080000f5   Thumb Code     0  entry8b.o(.ARM.Collect$$$$0000000A)
    _main_init                               0x080000f5   Thumb Code     0  entry9a.o(.ARM.Collect$$$$0000000B)
    __rt_final_cpp                           0x080000fd   Thumb Code     0  entry10a.o(.ARM.Collect$$$$0000000D)
    __rt_final_exit                          0x080000fd   Thumb Code     0  entry11a.o(.ARM.Collect$$$$0000000F)
    c_setup                                  0x08000101   Thumb Code   196  main.o(.text)
    c_loop                                   0x080001c5   Thumb Code    64  main.o(.text)
    main                                     0x08000205   Thumb Code    10  main.o(.text)
    NMI_Handler                              0x08000255   Thumb Code     2  stm32f10x_it.o(.text)
    HardFault_Handler                        0x08000257   Thumb Code     2  stm32f10x_it.o(.text)
    MemManage_Handler                        0x08000259   Thumb Code     2  stm32f10x_it.o(.text)
    BusFault_Handler                         0x0800025b   Thumb Code     2  stm32f10x_it.o(.text)
    UsageFault_Handler                       0x0800025d   Thumb Code     2  stm32f10x_it.o(.text)
    SVC_Handler                              0x0800025f   Thumb Code     2  stm32f10x_it.o(.text)
    DebugMon_Handler                         0x08000261   Thumb Code     2  stm32f10x_it.o(.text)
    PendSV_Handler                           0x08000263   Thumb Code     2  stm32f10x_it.o(.text)
    SysTick_Handler                          0x08000265   Thumb Code     2  stm32f10x_it.o(.text)
    SystemInit                               0x08000309   Thumb Code    64  system_stm32f10x.o(.text)
    SystemCoreClockUpdate                    0x08000349   Thumb Code    86  system_stm32f10x.o(.text)
    led_init                                 0x080003c1   Thumb Code    82  led.o(.text)
    led_flash                                0x08000413   Thumb Code    88  led.o(.text)
    led_flashing                             0x0800046b   Thumb Code    22  led.o(.text)
    led_update                               0x08000481   Thumb Code    54  led.o(.text)
    led_stop                                 0x080004b7   Thumb Code    28  led.o(.text)
    LCD_Init                                 0x08000509   Thumb Code    38  lcd.o(.text)
    oled_flush                               0x0800052f   Thumb Code    72  lcd.o(.text)
    TIM_PWM_Init_Init                        0x08000581   Thumb Code   136  beep.o(.text)
    buzzer_init                              0x08000609   Thumb Code     8  beep.o(.text)
    buzzer_buzz                              0x08000611   Thumb Code   170  beep.o(.text)
    buzzer_buzzing                           0x080006bb   Thumb Code    12  beep.o(.text)
    buzzer_update                            0x080006c7   Thumb Code    42  beep.o(.text)
    mpu_reg_dump                             0x08000779   Thumb Code    70  inv_mpu.o(.text)
    mpu_read_reg                             0x080007bf   Thumb Code    52  inv_mpu.o(.text)
    mpu_set_int_latched                      0x080007f3   Thumb Code    94  inv_mpu.o(.text)
    mpu_set_sensors                          0x08000851   Thumb Code   178  inv_mpu.o(.text)
    mpu_set_bypass                           0x08000903   Thumb Code   212  inv_mpu.o(.text)
    mpu_reset_fifo                           0x080009d7   Thumb Code   368  inv_mpu.o(.text)
    mpu_configure_fifo                       0x08000b47   Thumb Code    84  inv_mpu.o(.text)
    mpu_set_lpf                              0x08000b9b   Thumb Code   102  inv_mpu.o(.text)
    mpu_lp_accel_mode                        0x08000c01   Thumb Code   178  inv_mpu.o(.text)
    mpu_set_sample_rate                      0x08000cb3   Thumb Code   116  inv_mpu.o(.text)
    mpu_set_accel_fsr                        0x08000d27   Thumb Code    98  inv_mpu.o(.text)
    mpu_set_gyro_fsr                         0x08000d89   Thumb Code   104  inv_mpu.o(.text)
    mpu_init                                 0x08000df1   Thumb Code   310  inv_mpu.o(.text)
    mget_ms                                  0x08000f27   Thumb Code     2  inv_mpu.o(.text)
    mpu_get_gyro_reg                         0x08000f29   Thumb Code   150  inv_mpu.o(.text)
    mpu_get_accel_reg                        0x08000fbf   Thumb Code    66  inv_mpu.o(.text)
    mpu_get_temperature                      0x08001001   Thumb Code   104  inv_mpu.o(.text)
    mpu_set_accel_bias                       0x08001069   Thumb Code   214  inv_mpu.o(.text)
    mpu_get_gyro_fsr                         0x0800113f   Thumb Code    48  inv_mpu.o(.text)
    mpu_get_accel_fsr                        0x0800116f   Thumb Code    54  inv_mpu.o(.text)
    mpu_get_lpf                              0x080011a5   Thumb Code    52  inv_mpu.o(.text)
    mpu_get_sample_rate                      0x080011d9   Thumb Code    22  inv_mpu.o(.text)
    mpu_get_compass_sample_rate              0x080011ef   Thumb Code     8  inv_mpu.o(.text)
    mpu_set_compass_sample_rate              0x080011f7   Thumb Code     6  inv_mpu.o(.text)
    mpu_get_gyro_sens                        0x080011fd   Thumb Code    44  inv_mpu.o(.text)
    mpu_get_accel_sens                       0x08001229   Thumb Code    62  inv_mpu.o(.text)
    mpu_get_fifo_config                      0x08001267   Thumb Code    10  inv_mpu.o(.text)
    mpu_get_power_state                      0x08001271   Thumb Code    14  inv_mpu.o(.text)
    mpu_get_int_status                       0x0800127f   Thumb Code    48  inv_mpu.o(.text)
    mpu_read_fifo                            0x080012af   Thumb Code   362  inv_mpu.o(.text)
    mpu_read_fifo_stream                     0x08001419   Thumb Code   138  inv_mpu.o(.text)
    mpu_set_int_level                        0x080014a3   Thumb Code    10  inv_mpu.o(.text)
    mpu_set_dmp_state                        0x080017bb   Thumb Code   120  inv_mpu.o(.text)
    mpu_run_self_test                        0x08001833   Thumb Code   234  inv_mpu.o(.text)
    mpu_write_mem                            0x0800191d   Thumb Code    80  inv_mpu.o(.text)
    mpu_read_mem                             0x0800196d   Thumb Code    80  inv_mpu.o(.text)
    mpu_load_firmware                        0x080019bd   Thumb Code   158  inv_mpu.o(.text)
    mpu_get_dmp_state                        0x08001a5b   Thumb Code    12  inv_mpu.o(.text)
    setup_compass                            0x08001a67   Thumb Code     6  inv_mpu.o(.text)
    mpu_get_compass_reg                      0x08001a6d   Thumb Code     6  inv_mpu.o(.text)
    mpu_get_compass_fsr                      0x08001a73   Thumb Code     6  inv_mpu.o(.text)
    mpu_lp_motion_interrupt                  0x08001a79   Thumb Code   434  inv_mpu.o(.text)
    run_self_test                            0x08001c2b   Thumb Code   128  inv_mpu.o(.text)
    inv_row_2_scale                          0x08001cab   Thumb Code    72  inv_mpu.o(.text)
    inv_orientation_matrix_to_scalar         0x08001cf3   Thumb Code    34  inv_mpu.o(.text)
    mpu_dmp_init                             0x08001d15   Thumb Code   158  inv_mpu.o(.text)
    mpu_dmp_get_data                         0x08001db3   Thumb Code   406  inv_mpu.o(.text)
    dmp_load_motion_driver_firmware          0x08002145   Thumb Code    16  inv_mpu_dmp_motion_driver.o(.text)
    dmp_set_orientation                      0x08002155   Thumb Code   246  inv_mpu_dmp_motion_driver.o(.text)
    dmp_set_gyro_bias                        0x0800224b   Thumb Code   196  inv_mpu_dmp_motion_driver.o(.text)
    dmp_set_accel_bias                       0x0800230f   Thumb Code   206  inv_mpu_dmp_motion_driver.o(.text)
    dmp_set_fifo_rate                        0x080023dd   Thumb Code    82  inv_mpu_dmp_motion_driver.o(.text)
    dmp_get_fifo_rate                        0x0800242f   Thumb Code    10  inv_mpu_dmp_motion_driver.o(.text)
    dmp_set_tap_thresh                       0x08002439   Thumb Code   340  inv_mpu_dmp_motion_driver.o(.text)
    dmp_set_tap_axes                         0x0800258d   Thumb Code    64  inv_mpu_dmp_motion_driver.o(.text)
    dmp_set_tap_count                        0x080025cd   Thumb Code    34  inv_mpu_dmp_motion_driver.o(.text)
    dmp_set_tap_time                         0x080025ef   Thumb Code    32  inv_mpu_dmp_motion_driver.o(.text)
    dmp_set_tap_time_multi                   0x0800260f   Thumb Code    32  inv_mpu_dmp_motion_driver.o(.text)
    dmp_set_shake_reject_thresh              0x0800262f   Thumb Code    48  inv_mpu_dmp_motion_driver.o(.text)
    dmp_set_shake_reject_time                0x0800265f   Thumb Code    32  inv_mpu_dmp_motion_driver.o(.text)
    dmp_set_shake_reject_timeout             0x0800267f   Thumb Code    32  inv_mpu_dmp_motion_driver.o(.text)
    dmp_get_pedometer_step_count             0x0800269f   Thumb Code    48  inv_mpu_dmp_motion_driver.o(.text)
    dmp_set_pedometer_step_count             0x080026cf   Thumb Code    38  inv_mpu_dmp_motion_driver.o(.text)
    dmp_get_pedometer_walk_time              0x080026f5   Thumb Code    54  inv_mpu_dmp_motion_driver.o(.text)
    dmp_set_pedometer_walk_time              0x0800272b   Thumb Code    44  inv_mpu_dmp_motion_driver.o(.text)
    dmp_enable_6x_lp_quat                    0x08002757   Thumb Code    58  inv_mpu_dmp_motion_driver.o(.text)
    dmp_enable_lp_quat                       0x08002791   Thumb Code    58  inv_mpu_dmp_motion_driver.o(.text)
    dmp_enable_gyro_cal                      0x080027cb   Thumb Code    32  inv_mpu_dmp_motion_driver.o(.text)
    dmp_enable_feature                       0x080027eb   Thumb Code   468  inv_mpu_dmp_motion_driver.o(.text)
    dmp_get_enabled_features                 0x080029bf   Thumb Code    10  inv_mpu_dmp_motion_driver.o(.text)
    dmp_set_interrupt_mode                   0x080029c9   Thumb Code    60  inv_mpu_dmp_motion_driver.o(.text)
    dmp_read_fifo                            0x08002a05   Thumb Code   324  inv_mpu_dmp_motion_driver.o(.text)
    dmp_register_tap_cb                      0x08002b49   Thumb Code     8  inv_mpu_dmp_motion_driver.o(.text)
    dmp_register_android_orient_cb           0x08002b51   Thumb Code     8  inv_mpu_dmp_motion_driver.o(.text)
    MPU_Write_Byte                           0x08002b91   Thumb Code    60  mpu6050.o(.text)
    MPU_Set_LPF                              0x08002bcd   Thumb Code    46  mpu6050.o(.text)
    MPU_Set_Rate                             0x08002bfb   Thumb Code    44  mpu6050.o(.text)
    MPU_Read_Byte                            0x08002c27   Thumb Code    58  mpu6050.o(.text)
    MPU_Set_Accel_Fsr                        0x08002c61   Thumb Code     8  mpu6050.o(.text)
    MPU_Set_Gyro_Fsr                         0x08002c69   Thumb Code     8  mpu6050.o(.text)
    MPU_Init                                 0x08002c71   Thumb Code   130  mpu6050.o(.text)
    MPU_Read_Len                             0x08002cf3   Thumb Code   106  mpu6050.o(.text)
    MPU_Get_Temperature                      0x08002d5d   Thumb Code    60  mpu6050.o(.text)
    MPU_Get_Gyroscope                        0x08002d99   Thumb Code    50  mpu6050.o(.text)
    MPU_Get_Accelerometer                    0x08002dcb   Thumb Code    50  mpu6050.o(.text)
    MPU_Write_Len                            0x08002dfd   Thumb Code    80  mpu6050.o(.text)
    MPU_IIC_Delay                            0x08002e6d   Thumb Code     6  mpuiic.o(.text)
    MPU_IIC_Init                             0x08002e73   Thumb Code    40  mpuiic.o(.text)
    MPU_IIC_Start                            0x08002e9b   Thumb Code    58  mpuiic.o(.text)
    MPU_IIC_Stop                             0x08002ed5   Thumb Code    60  mpuiic.o(.text)
    MPU_IIC_Wait_Ack                         0x08002f11   Thumb Code    80  mpuiic.o(.text)
    MPU_IIC_Ack                              0x08002f61   Thumb Code    62  mpuiic.o(.text)
    MPU_IIC_NAck                             0x08002f9f   Thumb Code    58  mpuiic.o(.text)
    MPU_IIC_Send_Byte                        0x08002fd9   Thumb Code    90  mpuiic.o(.text)
    MPU_IIC_Read_Byte                        0x08003033   Thumb Code   102  mpuiic.o(.text)
    draw_point                               0x080030a1   Thumb Code    40  mpu_task.o(.text)
    myOLED_DrawLine                          0x080030c9   Thumb Code   162  mpu_task.o(.text)
    mpu_updata                               0x0800316b   Thumb Code    20  mpu_task.o(.text)
    mpu_open                                 0x08003343   Thumb Code    36  mpu_task.o(.text)
    delay_init                               0x080033c1   Thumb Code    46  delay.o(.text)
    delay_us                                 0x080033ef   Thumb Code    46  delay.o(.text)
    delay_ms                                 0x0800341d   Thumb Code    46  delay.o(.text)
    _sys_exit                                0x08003459   Thumb Code     2  usart.o(.text)
    fputc                                    0x0800345b   Thumb Code    18  usart.o(.text)
    uart_init                                0x0800346d   Thumb Code   152  usart.o(.text)
    USART1_IRQHandler                        0x08003505   Thumb Code    88  usart.o(.text)
    Reset_Handler                            0x0800356d   Thumb Code     8  startup_stm32f10x_md.o(.text)
    ADC1_2_IRQHandler                        0x08003587   Thumb Code     0  startup_stm32f10x_md.o(.text)
    CAN1_RX1_IRQHandler                      0x08003587   Thumb Code     0  startup_stm32f10x_md.o(.text)
    CAN1_SCE_IRQHandler                      0x08003587   Thumb Code     0  startup_stm32f10x_md.o(.text)
    DMA1_Channel1_IRQHandler                 0x08003587   Thumb Code     0  startup_stm32f10x_md.o(.text)
    DMA1_Channel2_IRQHandler                 0x08003587   Thumb Code     0  startup_stm32f10x_md.o(.text)
    DMA1_Channel3_IRQHandler                 0x08003587   Thumb Code     0  startup_stm32f10x_md.o(.text)
    DMA1_Channel4_IRQHandler                 0x08003587   Thumb Code     0  startup_stm32f10x_md.o(.text)
    DMA1_Channel5_IRQHandler                 0x08003587   Thumb Code     0  startup_stm32f10x_md.o(.text)
    DMA1_Channel6_IRQHandler                 0x08003587   Thumb Code     0  startup_stm32f10x_md.o(.text)
    DMA1_Channel7_IRQHandler                 0x08003587   Thumb Code     0  startup_stm32f10x_md.o(.text)
    EXTI0_IRQHandler                         0x08003587   Thumb Code     0  startup_stm32f10x_md.o(.text)
    EXTI15_10_IRQHandler                     0x08003587   Thumb Code     0  startup_stm32f10x_md.o(.text)
    EXTI1_IRQHandler                         0x08003587   Thumb Code     0  startup_stm32f10x_md.o(.text)
    EXTI2_IRQHandler                         0x08003587   Thumb Code     0  startup_stm32f10x_md.o(.text)
    EXTI3_IRQHandler                         0x08003587   Thumb Code     0  startup_stm32f10x_md.o(.text)
    EXTI4_IRQHandler                         0x08003587   Thumb Code     0  startup_stm32f10x_md.o(.text)
    EXTI9_5_IRQHandler                       0x08003587   Thumb Code     0  startup_stm32f10x_md.o(.text)
    FLASH_IRQHandler                         0x08003587   Thumb Code     0  startup_stm32f10x_md.o(.text)
    I2C1_ER_IRQHandler                       0x08003587   Thumb Code     0  startup_stm32f10x_md.o(.text)
    I2C1_EV_IRQHandler                       0x08003587   Thumb Code     0  startup_stm32f10x_md.o(.text)
    I2C2_ER_IRQHandler                       0x08003587   Thumb Code     0  startup_stm32f10x_md.o(.text)
    I2C2_EV_IRQHandler                       0x08003587   Thumb Code     0  startup_stm32f10x_md.o(.text)
    PVD_IRQHandler                           0x08003587   Thumb Code     0  startup_stm32f10x_md.o(.text)
    RCC_IRQHandler                           0x08003587   Thumb Code     0  startup_stm32f10x_md.o(.text)
    RTCAlarm_IRQHandler                      0x08003587   Thumb Code     0  startup_stm32f10x_md.o(.text)
    RTC_IRQHandler                           0x08003587   Thumb Code     0  startup_stm32f10x_md.o(.text)
    SPI1_IRQHandler                          0x08003587   Thumb Code     0  startup_stm32f10x_md.o(.text)
    SPI2_IRQHandler                          0x08003587   Thumb Code     0  startup_stm32f10x_md.o(.text)
    TAMPER_IRQHandler                        0x08003587   Thumb Code     0  startup_stm32f10x_md.o(.text)
    TIM1_BRK_IRQHandler                      0x08003587   Thumb Code     0  startup_stm32f10x_md.o(.text)
    TIM1_CC_IRQHandler                       0x08003587   Thumb Code     0  startup_stm32f10x_md.o(.text)
    TIM1_TRG_COM_IRQHandler                  0x08003587   Thumb Code     0  startup_stm32f10x_md.o(.text)
    TIM1_UP_IRQHandler                       0x08003587   Thumb Code     0  startup_stm32f10x_md.o(.text)
    TIM2_IRQHandler                          0x08003587   Thumb Code     0  startup_stm32f10x_md.o(.text)
    TIM4_IRQHandler                          0x08003587   Thumb Code     0  startup_stm32f10x_md.o(.text)
    USART3_IRQHandler                        0x08003587   Thumb Code     0  startup_stm32f10x_md.o(.text)
    USBWakeUp_IRQHandler                     0x08003587   Thumb Code     0  startup_stm32f10x_md.o(.text)
    USB_HP_CAN1_TX_IRQHandler                0x08003587   Thumb Code     0  startup_stm32f10x_md.o(.text)
    USB_LP_CAN1_RX0_IRQHandler               0x08003587   Thumb Code     0  startup_stm32f10x_md.o(.text)
    WWDG_IRQHandler                          0x08003587   Thumb Code     0  startup_stm32f10x_md.o(.text)
    GPIO_DeInit                              0x08003591   Thumb Code   152  stm32f10x_gpio.o(.text)
    GPIO_AFIODeInit                          0x08003629   Thumb Code    22  stm32f10x_gpio.o(.text)
    GPIO_Init                                0x0800363f   Thumb Code   156  stm32f10x_gpio.o(.text)
    GPIO_StructInit                          0x080036db   Thumb Code    16  stm32f10x_gpio.o(.text)
    GPIO_ReadInputDataBit                    0x080036eb   Thumb Code    14  stm32f10x_gpio.o(.text)
    GPIO_ReadInputData                       0x080036f9   Thumb Code     6  stm32f10x_gpio.o(.text)
    GPIO_ReadOutputDataBit                   0x080036ff   Thumb Code    14  stm32f10x_gpio.o(.text)
    GPIO_ReadOutputData                      0x0800370d   Thumb Code     6  stm32f10x_gpio.o(.text)
    GPIO_SetBits                             0x08003713   Thumb Code     4  stm32f10x_gpio.o(.text)
    GPIO_ResetBits                           0x08003717   Thumb Code     4  stm32f10x_gpio.o(.text)
    GPIO_WriteBit                            0x0800371b   Thumb Code    10  stm32f10x_gpio.o(.text)
    GPIO_Write                               0x08003725   Thumb Code     4  stm32f10x_gpio.o(.text)
    GPIO_PinLockConfig                       0x08003729   Thumb Code    16  stm32f10x_gpio.o(.text)
    GPIO_EventOutputConfig                   0x08003739   Thumb Code    22  stm32f10x_gpio.o(.text)
    GPIO_EventOutputCmd                      0x0800374f   Thumb Code     6  stm32f10x_gpio.o(.text)
    GPIO_PinRemapConfig                      0x08003755   Thumb Code    82  stm32f10x_gpio.o(.text)
    GPIO_EXTILineConfig                      0x080037a7   Thumb Code    34  stm32f10x_gpio.o(.text)
    GPIO_ETH_MediaInterfaceConfig            0x080037c9   Thumb Code     8  stm32f10x_gpio.o(.text)
    RCC_DeInit                               0x080037f5   Thumb Code    50  stm32f10x_rcc.o(.text)
    RCC_HSEConfig                            0x08003827   Thumb Code    48  stm32f10x_rcc.o(.text)
    RCC_GetFlagStatus                        0x08003857   Thumb Code    42  stm32f10x_rcc.o(.text)
    RCC_WaitForHSEStartUp                    0x08003881   Thumb Code    44  stm32f10x_rcc.o(.text)
    RCC_AdjustHSICalibrationValue            0x080038ad   Thumb Code    16  stm32f10x_rcc.o(.text)
    RCC_HSICmd                               0x080038bd   Thumb Code     6  stm32f10x_rcc.o(.text)
    RCC_PLLConfig                            0x080038c3   Thumb Code    16  stm32f10x_rcc.o(.text)
    RCC_PLLCmd                               0x080038d3   Thumb Code     6  stm32f10x_rcc.o(.text)
    RCC_SYSCLKConfig                         0x080038d9   Thumb Code    14  stm32f10x_rcc.o(.text)
    RCC_GetSYSCLKSource                      0x080038e7   Thumb Code    10  stm32f10x_rcc.o(.text)
    RCC_HCLKConfig                           0x080038f1   Thumb Code    14  stm32f10x_rcc.o(.text)
    RCC_PCLK1Config                          0x080038ff   Thumb Code    14  stm32f10x_rcc.o(.text)
    RCC_PCLK2Config                          0x0800390d   Thumb Code    16  stm32f10x_rcc.o(.text)
    RCC_ITConfig                             0x0800391d   Thumb Code    18  stm32f10x_rcc.o(.text)
    RCC_USBCLKConfig                         0x0800392f   Thumb Code     8  stm32f10x_rcc.o(.text)
    RCC_ADCCLKConfig                         0x08003937   Thumb Code    14  stm32f10x_rcc.o(.text)
    RCC_LSEConfig                            0x08003945   Thumb Code    28  stm32f10x_rcc.o(.text)
    RCC_LSICmd                               0x08003961   Thumb Code     6  stm32f10x_rcc.o(.text)
    RCC_RTCCLKConfig                         0x08003967   Thumb Code    10  stm32f10x_rcc.o(.text)
    RCC_RTCCLKCmd                            0x08003971   Thumb Code     8  stm32f10x_rcc.o(.text)
    RCC_GetClocksFreq                        0x08003979   Thumb Code   132  stm32f10x_rcc.o(.text)
    RCC_AHBPeriphClockCmd                    0x080039fd   Thumb Code    18  stm32f10x_rcc.o(.text)
    RCC_APB2PeriphClockCmd                   0x08003a0f   Thumb Code    18  stm32f10x_rcc.o(.text)
    RCC_APB1PeriphClockCmd                   0x08003a21   Thumb Code    18  stm32f10x_rcc.o(.text)
    RCC_APB2PeriphResetCmd                   0x08003a33   Thumb Code    18  stm32f10x_rcc.o(.text)
    RCC_APB1PeriphResetCmd                   0x08003a45   Thumb Code    18  stm32f10x_rcc.o(.text)
    RCC_BackupResetCmd                       0x08003a57   Thumb Code     8  stm32f10x_rcc.o(.text)
    RCC_ClockSecuritySystemCmd               0x08003a5f   Thumb Code     6  stm32f10x_rcc.o(.text)
    RCC_MCOConfig                            0x08003a65   Thumb Code     6  stm32f10x_rcc.o(.text)
    RCC_ClearFlag                            0x08003a6b   Thumb Code    12  stm32f10x_rcc.o(.text)
    RCC_GetITStatus                          0x08003a77   Thumb Code    16  stm32f10x_rcc.o(.text)
    RCC_ClearITPendingBit                    0x08003a87   Thumb Code     6  stm32f10x_rcc.o(.text)
    USART_DeInit                             0x08003aad   Thumb Code    96  stm32f10x_usart.o(.text)
    USART_Init                               0x08003b0d   Thumb Code   166  stm32f10x_usart.o(.text)
    USART_StructInit                         0x08003bb3   Thumb Code    22  stm32f10x_usart.o(.text)
    USART_ClockInit                          0x08003bc9   Thumb Code    30  stm32f10x_usart.o(.text)
    USART_ClockStructInit                    0x08003be7   Thumb Code    12  stm32f10x_usart.o(.text)
    USART_Cmd                                0x08003bf3   Thumb Code    20  stm32f10x_usart.o(.text)
    USART_ITConfig                           0x08003c07   Thumb Code    48  stm32f10x_usart.o(.text)
    USART_DMACmd                             0x08003c37   Thumb Code    16  stm32f10x_usart.o(.text)
    USART_SetAddress                         0x08003c47   Thumb Code    16  stm32f10x_usart.o(.text)
    USART_WakeUpConfig                       0x08003c57   Thumb Code    16  stm32f10x_usart.o(.text)
    USART_ReceiverWakeUpCmd                  0x08003c67   Thumb Code    20  stm32f10x_usart.o(.text)
    USART_LINBreakDetectLengthConfig         0x08003c7b   Thumb Code    16  stm32f10x_usart.o(.text)
    USART_LINCmd                             0x08003c8b   Thumb Code    20  stm32f10x_usart.o(.text)
    USART_SendData                           0x08003c9f   Thumb Code     8  stm32f10x_usart.o(.text)
    USART_ReceiveData                        0x08003ca7   Thumb Code     8  stm32f10x_usart.o(.text)
    USART_SendBreak                          0x08003caf   Thumb Code    10  stm32f10x_usart.o(.text)
    USART_SetGuardTime                       0x08003cb9   Thumb Code    16  stm32f10x_usart.o(.text)
    USART_SetPrescaler                       0x08003cc9   Thumb Code    16  stm32f10x_usart.o(.text)
    USART_SmartCardCmd                       0x08003cd9   Thumb Code    20  stm32f10x_usart.o(.text)
    USART_SmartCardNACKCmd                   0x08003ced   Thumb Code    20  stm32f10x_usart.o(.text)
    USART_HalfDuplexCmd                      0x08003d01   Thumb Code    20  stm32f10x_usart.o(.text)
    USART_OverSampling8Cmd                   0x08003d15   Thumb Code    20  stm32f10x_usart.o(.text)
    USART_OneBitMethodCmd                    0x08003d29   Thumb Code    20  stm32f10x_usart.o(.text)
    USART_IrDAConfig                         0x08003d3d   Thumb Code    16  stm32f10x_usart.o(.text)
    USART_IrDACmd                            0x08003d4d   Thumb Code    20  stm32f10x_usart.o(.text)
    USART_GetFlagStatus                      0x08003d61   Thumb Code    14  stm32f10x_usart.o(.text)
    USART_ClearFlag                          0x08003d6f   Thumb Code     6  stm32f10x_usart.o(.text)
    USART_GetITStatus                        0x08003d75   Thumb Code    62  stm32f10x_usart.o(.text)
    USART_ClearITPendingBit                  0x08003db3   Thumb Code    12  stm32f10x_usart.o(.text)
    NVIC_PriorityGroupConfig                 0x08003dd5   Thumb Code    10  misc.o(.text)
    NVIC_Init                                0x08003ddf   Thumb Code    94  misc.o(.text)
    NVIC_SetVectorTable                      0x08003e3d   Thumb Code    14  misc.o(.text)
    NVIC_SystemLPConfig                      0x08003e4b   Thumb Code    20  misc.o(.text)
    SysTick_CLKSourceConfig                  0x08003e5f   Thumb Code    24  misc.o(.text)
    TIM_DeInit                               0x08003e85   Thumb Code   304  stm32f10x_tim.o(.text)
    TIM_TimeBaseInit                         0x08003fb5   Thumb Code   114  stm32f10x_tim.o(.text)
    TIM_OC1Init                              0x08004027   Thumb Code   106  stm32f10x_tim.o(.text)
    TIM_OC2Init                              0x08004091   Thumb Code   120  stm32f10x_tim.o(.text)
    TIM_OC3Init                              0x08004109   Thumb Code   116  stm32f10x_tim.o(.text)
    TIM_OC4Init                              0x0800417d   Thumb Code    90  stm32f10x_tim.o(.text)
    TIM_SetIC4Prescaler                      0x080041d7   Thumb Code    24  stm32f10x_tim.o(.text)
    TIM_SetIC3Prescaler                      0x080041ef   Thumb Code    16  stm32f10x_tim.o(.text)
    TIM_SetIC2Prescaler                      0x080041ff   Thumb Code    24  stm32f10x_tim.o(.text)
    TIM_SetIC1Prescaler                      0x080042bd   Thumb Code    16  stm32f10x_tim.o(.text)
    TIM_ICInit                               0x08004325   Thumb Code   270  stm32f10x_tim.o(.text)
    TIM_PWMIConfig                           0x08004433   Thumb Code   104  stm32f10x_tim.o(.text)
    TIM_BDTRConfig                           0x0800449b   Thumb Code    34  stm32f10x_tim.o(.text)
    TIM_TimeBaseStructInit                   0x080044bd   Thumb Code    18  stm32f10x_tim.o(.text)
    TIM_OCStructInit                         0x080044cf   Thumb Code    20  stm32f10x_tim.o(.text)
    TIM_ICStructInit                         0x080044e3   Thumb Code    16  stm32f10x_tim.o(.text)
    TIM_BDTRStructInit                       0x080044f3   Thumb Code    18  stm32f10x_tim.o(.text)
    TIM_Cmd                                  0x08004505   Thumb Code    20  stm32f10x_tim.o(.text)
    TIM_CtrlPWMOutputs                       0x08004519   Thumb Code    22  stm32f10x_tim.o(.text)
    TIM_ITConfig                             0x0800452f   Thumb Code    16  stm32f10x_tim.o(.text)
    TIM_GenerateEvent                        0x0800453f   Thumb Code     4  stm32f10x_tim.o(.text)
    TIM_DMAConfig                            0x08004543   Thumb Code     8  stm32f10x_tim.o(.text)
    TIM_DMACmd                               0x0800454b   Thumb Code    16  stm32f10x_tim.o(.text)
    TIM_InternalClockConfig                  0x0800455b   Thumb Code    10  stm32f10x_tim.o(.text)
    TIM_SelectInputTrigger                   0x08004565   Thumb Code    12  stm32f10x_tim.o(.text)
    TIM_ITRxExternalClockConfig              0x08004571   Thumb Code    18  stm32f10x_tim.o(.text)
    TIM_TIxExternalClockConfig               0x08004583   Thumb Code    46  stm32f10x_tim.o(.text)
    TIM_ETRConfig                            0x080045b1   Thumb Code    24  stm32f10x_tim.o(.text)
    TIM_ETRClockMode1Config                  0x080045c9   Thumb Code    18  stm32f10x_tim.o(.text)
    TIM_ETRClockMode2Config                  0x080045db   Thumb Code    18  stm32f10x_tim.o(.text)
    TIM_PrescalerConfig                      0x080045ed   Thumb Code     6  stm32f10x_tim.o(.text)
    TIM_CounterModeConfig                    0x080045f3   Thumb Code    12  stm32f10x_tim.o(.text)
    TIM_EncoderInterfaceConfig               0x080045ff   Thumb Code    50  stm32f10x_tim.o(.text)
    TIM_ForcedOC1Config                      0x08004631   Thumb Code    12  stm32f10x_tim.o(.text)
    TIM_ForcedOC2Config                      0x0800463d   Thumb Code    20  stm32f10x_tim.o(.text)
    TIM_ForcedOC3Config                      0x08004651   Thumb Code    12  stm32f10x_tim.o(.text)
    TIM_ForcedOC4Config                      0x0800465d   Thumb Code    20  stm32f10x_tim.o(.text)
    TIM_ARRPreloadConfig                     0x08004671   Thumb Code    20  stm32f10x_tim.o(.text)
    TIM_SelectCOM                            0x08004685   Thumb Code    20  stm32f10x_tim.o(.text)
    TIM_SelectCCDMA                          0x08004699   Thumb Code    20  stm32f10x_tim.o(.text)
    TIM_CCPreloadControl                     0x080046ad   Thumb Code    20  stm32f10x_tim.o(.text)
    TIM_OC1PreloadConfig                     0x080046c1   Thumb Code    32  stm32f10x_tim.o(.text)
    TIM_OC2PreloadConfig                     0x080046e1   Thumb Code    20  stm32f10x_tim.o(.text)
    TIM_OC3PreloadConfig                     0x080046f5   Thumb Code    12  stm32f10x_tim.o(.text)
    TIM_OC4PreloadConfig                     0x08004701   Thumb Code    20  stm32f10x_tim.o(.text)
    TIM_OC1FastConfig                        0x08004715   Thumb Code    12  stm32f10x_tim.o(.text)
    TIM_OC2FastConfig                        0x08004721   Thumb Code    20  stm32f10x_tim.o(.text)
    TIM_OC3FastConfig                        0x08004735   Thumb Code    12  stm32f10x_tim.o(.text)
    TIM_OC4FastConfig                        0x08004741   Thumb Code    20  stm32f10x_tim.o(.text)
    TIM_ClearOC1Ref                          0x08004755   Thumb Code    12  stm32f10x_tim.o(.text)
    TIM_ClearOC2Ref                          0x08004761   Thumb Code    20  stm32f10x_tim.o(.text)
    TIM_ClearOC3Ref                          0x08004775   Thumb Code    12  stm32f10x_tim.o(.text)
    TIM_ClearOC4Ref                          0x08004781   Thumb Code    20  stm32f10x_tim.o(.text)
    TIM_OC1PolarityConfig                    0x08004795   Thumb Code    12  stm32f10x_tim.o(.text)
    TIM_OC1NPolarityConfig                   0x080047a1   Thumb Code    12  stm32f10x_tim.o(.text)
    TIM_OC2PolarityConfig                    0x080047ad   Thumb Code    20  stm32f10x_tim.o(.text)
    TIM_OC2NPolarityConfig                   0x080047c1   Thumb Code    20  stm32f10x_tim.o(.text)
    TIM_OC3PolarityConfig                    0x080047d5   Thumb Code    20  stm32f10x_tim.o(.text)
    TIM_OC3NPolarityConfig                   0x080047e9   Thumb Code    20  stm32f10x_tim.o(.text)
    TIM_OC4PolarityConfig                    0x080047fd   Thumb Code    20  stm32f10x_tim.o(.text)
    TIM_CCxCmd                               0x08004811   Thumb Code    22  stm32f10x_tim.o(.text)
    TIM_CCxNCmd                              0x08004827   Thumb Code    22  stm32f10x_tim.o(.text)
    TIM_SelectOCxM                           0x0800483d   Thumb Code    70  stm32f10x_tim.o(.text)
    TIM_UpdateDisableConfig                  0x08004883   Thumb Code    20  stm32f10x_tim.o(.text)
    TIM_UpdateRequestConfig                  0x08004897   Thumb Code    20  stm32f10x_tim.o(.text)
    TIM_SelectHallSensor                     0x080048ab   Thumb Code    20  stm32f10x_tim.o(.text)
    TIM_SelectOnePulseMode                   0x080048bf   Thumb Code    16  stm32f10x_tim.o(.text)
    TIM_SelectOutputTrigger                  0x080048cf   Thumb Code    16  stm32f10x_tim.o(.text)
    TIM_SelectSlaveMode                      0x080048df   Thumb Code    16  stm32f10x_tim.o(.text)
    TIM_SelectMasterSlaveMode                0x080048ef   Thumb Code    16  stm32f10x_tim.o(.text)
    TIM_SetCounter                           0x080048ff   Thumb Code     4  stm32f10x_tim.o(.text)
    TIM_SetAutoreload                        0x08004903   Thumb Code     4  stm32f10x_tim.o(.text)
    TIM_SetCompare1                          0x08004907   Thumb Code     4  stm32f10x_tim.o(.text)
    TIM_SetCompare2                          0x0800490b   Thumb Code     4  stm32f10x_tim.o(.text)
    TIM_SetCompare3                          0x0800490f   Thumb Code     4  stm32f10x_tim.o(.text)
    TIM_SetCompare4                          0x08004913   Thumb Code     6  stm32f10x_tim.o(.text)
    TIM_SetClockDivision                     0x08004919   Thumb Code    16  stm32f10x_tim.o(.text)
    TIM_GetCapture1                          0x08004929   Thumb Code     4  stm32f10x_tim.o(.text)
    TIM_GetCapture2                          0x0800492d   Thumb Code     4  stm32f10x_tim.o(.text)
    TIM_GetCapture3                          0x08004931   Thumb Code     4  stm32f10x_tim.o(.text)
    TIM_GetCapture4                          0x08004935   Thumb Code     6  stm32f10x_tim.o(.text)
    TIM_GetCounter                           0x0800493b   Thumb Code     4  stm32f10x_tim.o(.text)
    TIM_GetPrescaler                         0x0800493f   Thumb Code     4  stm32f10x_tim.o(.text)
    TIM_GetFlagStatus                        0x08004943   Thumb Code    14  stm32f10x_tim.o(.text)
    TIM_ClearFlag                            0x08004951   Thumb Code     6  stm32f10x_tim.o(.text)
    TIM_GetITStatus                          0x08004957   Thumb Code    24  stm32f10x_tim.o(.text)
    TIM_ClearITPendingBit                    0x0800496f   Thumb Code     6  stm32f10x_tim.o(.text)
    alarm_get                                0x08004975   Thumb Code    18  alarm.o(.text)
    alarm_init                               0x08004a21   Thumb Code     2  alarm.o(.text)
    alarm_reset                              0x08004a23   Thumb Code     8  alarm.o(.text)
    alarm_getNext                            0x08004a2b   Thumb Code    26  alarm.o(.text)
    alarm_getNextDay                         0x08004a45   Thumb Code     8  alarm.o(.text)
    alarm_save                               0x08004a4d   Thumb Code    18  alarm.o(.text)
    alarm_update                             0x08004ad7   Thumb Code   132  alarm.o(.text)
    alarm_updateNextAlarm                    0x08004b5b   Thumb Code     2  alarm.o(.text)
    mAlarmsOpen                              0x08004edb   Thumb Code    44  alarms.o(.text)
    animation_init                           0x08004ff1   Thumb Code    10  animation.o(.text)
    animation_update                         0x08004ffb   Thumb Code   120  animation.o(.text)
    animation_start                          0x08005073   Thumb Code    34  animation.o(.text)
    animation_active                         0x08005095   Thumb Code     6  animation.o(.text)
    animation_movingOn                       0x0800509b   Thumb Code    14  animation.o(.text)
    animation_offsetY                        0x080050a9   Thumb Code     6  animation.o(.text)
    appconfig_save                           0x080050b9   Thumb Code     2  appconfig.o(.text)
    appconfig_reset                          0x080050bb   Thumb Code    28  appconfig.o(.text)
    appconfig_init                           0x080050d7   Thumb Code     2  appconfig.o(.text)
    buttons_startup                          0x080050dd   Thumb Code    72  buttons.o(.text)
    buttons_init                             0x08005125   Thumb Code    22  buttons.o(.text)
    buttons_update                           0x0800513b   Thumb Code    92  buttons.o(.text)
    buttons_shutdown                         0x08005197   Thumb Code     2  buttons.o(.text)
    buttons_setFunc                          0x08005199   Thumb Code    12  buttons.o(.text)
    buttons_setFuncs                         0x080051a5   Thumb Code    10  buttons.o(.text)
    buttons_isActive                         0x080051af   Thumb Code    58  buttons.o(.text)
    buttons_wake                             0x080051e9   Thumb Code    44  buttons.o(.text)
    mDiagOpen                                0x08005363   Thumb Code    44  diag.o(.text)
    display_set                              0x0800541d   Thumb Code     6  display.o(.text)
    display_load                             0x08005423   Thumb Code    12  display.o(.text)
    display_setDrawFunc                      0x0800542f   Thumb Code    10  display.o(.text)
    display_update                           0x08005577   Thumb Code   124  display.o(.text)
    display_startCRTAnim                     0x080055f3   Thumb Code    52  display.o(.text)
    draw_bitmap                              0x08005639   Thumb Code   308  draw.o(.text)
    draw_string                              0x0800576d   Thumb Code   120  draw.o(.text)
    draw_string_P                            0x080057e5   Thumb Code    54  draw.o(.text)
    mydraw_bitmap                            0x0800581b   Thumb Code   320  draw.o(.text)
    draw_clearArea                           0x0800595b   Thumb Code    16  draw.o(.text)
    draw_end                                 0x0800596b   Thumb Code     4  draw.o(.text)
    game1_draw                               0x080059bb   Thumb Code   782  game1.o(.text)
    auto_mode                                0x08005cc9   Thumb Code    38  game1.o(.text)
    resume                                   0x08005cef   Thumb Code    30  game1.o(.text)
    game1_start                              0x08005e3b   Thumb Code   106  game1.o(.text)
    game2_start                              0x08006269   Thumb Code    74  game2.o(.text)
    draw_bitmap_set                          0x08006311   Thumb Code    26  game3.o(.text)
    draw_bitmap_s2                           0x0800632b   Thumb Code    26  game3.o(.text)
    game3_start                              0x080065d1   Thumb Code    76  game3.o(.text)
    _DrawPoint                               0x0800661d   Thumb Code    34  game3.o(.text)
    mGamesOpen                               0x08006741   Thumb Code    66  games.o(.text)
    global_init                              0x080067ed   Thumb Code     2  global.o(.text)
    global_update                            0x080067ef   Thumb Code     2  global.o(.text)
    div10                                    0x080067f1   Thumb Code     8  global.o(.text)
    mod10                                    0x080067f9   Thumb Code    12  global.o(.text)
    mDisplayOpen                             0x08006931   Thumb Code    50  m_display.o(.text)
    mMainOpen                                0x08006b21   Thumb Code    22  m_main.o(.text)
    menu_select                              0x08006bf5   Thumb Code    40  menu.o(.text)
    menu_down                                0x08006c1d   Thumb Code    14  menu.o(.text)
    menu_up                                  0x08006c2b   Thumb Code    14  menu.o(.text)
    menu_draw                                0x08006d41   Thumb Code   128  menu.o(.text)
    beginAnimation                           0x08006dc1   Thumb Code     6  menu.o(.text)
    setMenuOption                            0x08006dc7   Thumb Code   158  menu.o(.text)
    setMenuOption_P                          0x08006e65   Thumb Code    40  menu.o(.text)
    menu_isOpen                              0x08006e8d   Thumb Code     6  menu.o(.text)
    menu_close                               0x08006e93   Thumb Code    22  menu.o(.text)
    setPrevMenuOpen                          0x08006ea9   Thumb Code    18  menu.o(.text)
    exitSelected                             0x08006ebb   Thumb Code    20  menu.o(.text)
    setPrevMenuExit                          0x08006ecf   Thumb Code    30  menu.o(.text)
    back                                     0x08006eed   Thumb Code    12  menu.o(.text)
    addBackOption                            0x08006ef9   Thumb Code    18  menu.o(.text)
    beginAnimation2                          0x08006f0b   Thumb Code     6  menu.o(.text)
    setMenuInfo                              0x08006f11   Thumb Code    30  menu.o(.text)
    setMenuFuncs                             0x08006f2f   Thumb Code    14  menu.o(.text)
    nextOption                               0x08006f59   Thumb Code    22  menu.o(.text)
    prevOption                               0x08006f6f   Thumb Code    22  menu.o(.text)
    doAction                                 0x08006f85   Thumb Code    12  menu.o(.text)
    millis_init                              0x08007011   Thumb Code   112  millis.o(.text)
    millis_get                               0x08007081   Thumb Code     6  millis.o(.text)
    TIM3_IRQHandler                          0x08007087   Thumb Code    96  millis.o(.text)
    watchface_normal                         0x080074a1   Thumb Code    30  normal.o(.text)
    mSettingsOpen                            0x080075dd   Thumb Code    44  settings.o(.text)
    mSleepOpen                               0x080076f5   Thumb Code    50  sleep.o(.text)
    mSoundOpen                               0x080077f9   Thumb Code    50  sound.o(.text)
    stopwatch_open                           0x08007a61   Thumb Code    28  stopwatch.o(.text)
    stopwatch_active                         0x08007a7d   Thumb Code    12  stopwatch.o(.text)
    stopwatch_update                         0x08007a89   Thumb Code    36  stopwatch.o(.text)
    time_wake                                0x08007ad9   Thumb Code    20  time.o(.text)
    time_init                                0x08007aed   Thumb Code     2  time.o(.text)
    time_sleep                               0x08007aef   Thumb Code     8  time.o(.text)
    time_shutdown                            0x08007af7   Thumb Code     8  time.o(.text)
    time_timeMode                            0x08007aff   Thumb Code    76  time.o(.text)
    time_set                                 0x08007b4b   Thumb Code    42  time.o(.text)
    time_isLeapYear                          0x08007b75   Thumb Code    12  time.o(.text)
    time_dow                                 0x08007b81   Thumb Code    92  time.o(.text)
    time_monthDayCount                       0x08007bdd   Thumb Code    24  time.o(.text)
    time_timeStr                             0x08007bf5   Thumb Code    26  time.o(.text)
    time_update                              0x08007c0f   Thumb Code   122  time.o(.text)
    mTimeDateOpen                            0x08007fe5   Thumb Code    72  timedate.o(.text)
    torch_open                               0x08008173   Thumb Code    34  torch.o(.text)
    tune_play                                0x080081e1   Thumb Code    28  tune.o(.text)
    tune_stop                                0x080081fd   Thumb Code    24  tune.o(.text)
    OLED_DrawPoint                           0x080082cf   Thumb Code    42  tunemaker.o(.text)
    OLED_DrawLine                            0x080082f9   Thumb Code   148  tunemaker.o(.text)
    __SysTick                                0x0800838d   Thumb Code    20  tunemaker.o(.text)
    tunemakerOpen                            0x08008527   Thumb Code    48  tunemaker.o(.text)
    drawBattery                              0x080085a9   Thumb Code    24  ui.o(.text)
    pwrmgr_init                              0x080085c5   Thumb Code    10  pwrmgr.o(.text)
    pwrmgr_update                            0x080085cf   Thumb Code    76  pwrmgr.o(.text)
    pwrmgr_setState                          0x0800861b   Thumb Code     8  pwrmgr.o(.text)
    pwrmgr_userActive                        0x08008623   Thumb Code    14  pwrmgr.o(.text)
    InitGraph                                0x08008635   Thumb Code     4  oled_basic.o(.text)
    DriverInit                               0x08008639   Thumb Code    14  oled_config.o(.text)
    SW_SPI_Configuration                     0x08008649   Thumb Code   126  oled_driver.o(.text)
    WriteCmd                                 0x080086c7   Thumb Code   100  oled_driver.o(.text)
    WriteDat                                 0x0800872b   Thumb Code   100  oled_driver.o(.text)
    OLED_FILL                                0x0800878f   Thumb Code    56  oled_driver.o(.text)
    OLED_Init                                0x080087c7   Thumb Code   172  oled_driver.o(.text)
    OLED_CLS                                 0x08008873   Thumb Code    52  oled_driver.o(.text)
    OLED_ON                                  0x080088a7   Thumb Code    22  oled_driver.o(.text)
    OLED_OFF                                 0x080088bd   Thumb Code    22  oled_driver.o(.text)
    gui_print_s                              0x080088dd   Thumb Code    18  gui_log_console.o(.text)
    up_line                                  0x080088ef   Thumb Code    24  gui_log_console.o(.text)
    down_line                                0x08008907   Thumb Code    22  gui_log_console.o(.text)
    is_loging                                0x0800891d   Thumb Code    22  gui_log_console.o(.text)
    Generate_Dynamic_Aim_Speed               0x08008933   Thumb Code    42  gui_log_console.o(.text)
    console_loop_show                        0x0800895d   Thumb Code   164  gui_log_console.o(.text)
    strcopy_cnt                              0x08008a01   Thumb Code    24  gui_log_console.o(.text)
    find_huanhang_str_idx                    0x08008a19   Thumb Code    72  gui_log_console.o(.text)
    console_log                              0x08008a61   Thumb Code   354  gui_log_console.o(.text)
    Usart2_Init                              0x08008bdd   Thumb Code   176  usart2.o(.text)
    u2_printf                                0x08008c8d   Thumb Code    60  usart2.o(.text)
    u2_TxData                                0x08008cc9   Thumb Code    38  usart2.o(.text)
    USART2_IRQHandler                        0x08008cef   Thumb Code    50  usart2.o(.text)
    wifi_wait_data_hander                    0x08008d3d   Thumb Code    64  wait_data_clock.o(.text)
    WiFi_ResetIO_Init                        0x08008d91   Thumb Code    52  wifi.o(.text)
    deep_sleep                               0x08008dc5   Thumb Code    24  wifi.o(.text)
    light_sleep                              0x08008ddd   Thumb Code    24  wifi.o(.text)
    cmd_state                                0x08008df5   Thumb Code   186  wifi.o(.text)
    Find_string                              0x08008eaf   Thumb Code    68  wifi.o(.text)
    show_time_data                           0x08008ef3   Thumb Code    98  wifi.o(.text)
    updata_time_data                         0x08008f55   Thumb Code   250  wifi.o(.text)
    connect_my_phone                         0x0800904f   Thumb Code   188  wifi.o(.text)
    show_wather_data                         0x0800910b   Thumb Code    94  wifi.o(.text)
    get_weather_cmd                          0x08009169   Thumb Code   684  wifi.o(.text)
    reset_wifi_cmd                           0x08009415   Thumb Code    82  wifi.o(.text)
    wifi_status                              0x08009467   Thumb Code    70  wifi.o(.text)
    scan_wifi                                0x080094ad   Thumb Code    24  wifi.o(.text)
    smartconfig                              0x080094c5   Thumb Code   218  wifi.o(.text)
    skipped_AMI                              0x080096f1   Thumb Code    46  wifi_task.o(.text)
    wifi_test_open                           0x08009793   Thumb Code    54  wifi_task.o(.text)
    WiFi_CMD_updata                          0x0800984f   Thumb Code    56  wifi_cmd_task.o(.text)
    txt                                      0x08009887   Thumb Code     4  wifi_cmd_task.o(.text)
    cmd7                                     0x0800988b   Thumb Code     4  wifi_cmd_task.o(.text)
    cmd8                                     0x0800988f   Thumb Code     4  wifi_cmd_task.o(.text)
    cmd6                                     0x08009893   Thumb Code     4  wifi_cmd_task.o(.text)
    cmd5                                     0x08009897   Thumb Code     4  wifi_cmd_task.o(.text)
    cmd4                                     0x0800989b   Thumb Code     4  wifi_cmd_task.o(.text)
    cmd3                                     0x0800989f   Thumb Code     4  wifi_cmd_task.o(.text)
    cmd2                                     0x080098a3   Thumb Code     4  wifi_cmd_task.o(.text)
    cmd1                                     0x080098a7   Thumb Code     4  wifi_cmd_task.o(.text)
    wifi_comd_open                           0x0800995b   Thumb Code    56  wifi_cmd_task.o(.text)
    sizeof_str                               0x08009a71   Thumb Code    16  txt_viewer.o(.text)
    txtViewer_init                           0x08009a81   Thumb Code   102  txt_viewer.o(.text)
    txtViewer_changeSource                   0x08009ae7   Thumb Code    24  txt_viewer.o(.text)
    txtViewer_display                        0x08009aff   Thumb Code   276  txt_viewer.o(.text)
    txtViewer_drawBoundary                   0x08009c13   Thumb Code   100  txt_viewer.o(.text)
    backto                                   0x08009cd7   Thumb Code    18  txt_viewer.o(.text)
    txt_test_open                            0x08009d2d   Thumb Code    58  txt_viewer.o(.text)
    sizefull                                 0x08009d67   Thumb Code    12  txt_viewer.o(.text)
    size48x96                                0x08009d73   Thumb Code    12  txt_viewer.o(.text)
    size32x64                                0x08009d7f   Thumb Code    12  txt_viewer.o(.text)
    size48x64                                0x08009d8b   Thumb Code    12  txt_viewer.o(.text)
    win_leftRight                            0x08009d97   Thumb Code    12  txt_viewer.o(.text)
    win_upDown                               0x08009da3   Thumb Code    12  txt_viewer.o(.text)
    left_right                               0x08009daf   Thumb Code    12  txt_viewer.o(.text)
    up_down                                  0x08009dbb   Thumb Code    12  txt_viewer.o(.text)
    __aeabi_ldivmod                          0x0800a009   Thumb Code    98  ldiv.o(.text)
    rand                                     0x0800a06d   Thumb Code    20  rand.o(.text)
    srand                                    0x0800a081   Thumb Code     6  rand.o(.text)
    __aeabi_memcpy                           0x0800a091   Thumb Code    36  memcpya.o(.text)
    __aeabi_memcpy4                          0x0800a091   Thumb Code     0  memcpya.o(.text)
    __aeabi_memcpy8                          0x0800a091   Thumb Code     0  memcpya.o(.text)
    __aeabi_memset                           0x0800a0b5   Thumb Code    14  memseta.o(.text)
    __aeabi_memset4                          0x0800a0b5   Thumb Code     0  memseta.o(.text)
    __aeabi_memset8                          0x0800a0b5   Thumb Code     0  memseta.o(.text)
    __aeabi_memclr                           0x0800a0c3   Thumb Code     4  memseta.o(.text)
    __aeabi_memclr4                          0x0800a0c3   Thumb Code     0  memseta.o(.text)
    __aeabi_memclr8                          0x0800a0c3   Thumb Code     0  memseta.o(.text)
    _memset$wrapper                          0x0800a0c7   Thumb Code    18  memseta.o(.text)
    strcat                                   0x0800a0d9   Thumb Code    24  strcat.o(.text)
    strstr                                   0x0800a0f1   Thumb Code    36  strstr.o(.text)
    strlen                                   0x0800a115   Thumb Code    14  strlen.o(.text)
    memcmp                                   0x0800a123   Thumb Code    26  memcmp.o(.text)
    strcpy                                   0x0800a13d   Thumb Code    18  strcpy.o(.text)
    calloc                                   0x0800a14f   Thumb Code    28  calloc.o(.text)
    __aeabi_fadd                             0x0800a16b   Thumb Code   164  fadd.o(.text)
    __aeabi_fsub                             0x0800a20f   Thumb Code     6  fadd.o(.text)
    __aeabi_frsub                            0x0800a215   Thumb Code     6  fadd.o(.text)
    __aeabi_fmul                             0x0800a21b   Thumb Code   100  fmul.o(.text)
    __aeabi_fdiv                             0x0800a27f   Thumb Code   124  fdiv.o(.text)
    __ARM_scalbnf                            0x0800a2fb   Thumb Code    24  fscalb.o(.text)
    scalbnf                                  0x0800a2fb   Thumb Code     0  fscalb.o(.text)
    __aeabi_dadd                             0x0800a313   Thumb Code   322  dadd.o(.text)
    __aeabi_dsub                             0x0800a455   Thumb Code     6  dadd.o(.text)
    __aeabi_drsub                            0x0800a45b   Thumb Code     6  dadd.o(.text)
    __aeabi_dmul                             0x0800a461   Thumb Code   228  dmul.o(.text)
    __aeabi_ddiv                             0x0800a545   Thumb Code   222  ddiv.o(.text)
    __ARM_scalbn                             0x0800a623   Thumb Code    46  dscalb.o(.text)
    scalbn                                   0x0800a623   Thumb Code     0  dscalb.o(.text)
    __aeabi_i2f                              0x0800a651   Thumb Code    18  fflti.o(.text)
    __aeabi_ui2f                             0x0800a663   Thumb Code    10  ffltui.o(.text)
    __aeabi_i2d                              0x0800a66d   Thumb Code    34  dflti.o(.text)
    __aeabi_ui2d                             0x0800a68f   Thumb Code    26  dfltui.o(.text)
    __aeabi_f2iz                             0x0800a6a9   Thumb Code    50  ffixi.o(.text)
    __aeabi_f2uiz                            0x0800a6db   Thumb Code    40  ffixui.o(.text)
    __aeabi_d2uiz                            0x0800a703   Thumb Code    50  dfixui.o(.text)
    __aeabi_f2d                              0x0800a735   Thumb Code    38  f2d.o(.text)
    __aeabi_cdcmpeq                          0x0800a75d   Thumb Code     0  cdcmple.o(.text)
    __aeabi_cdcmple                          0x0800a75d   Thumb Code    48  cdcmple.o(.text)
    __aeabi_d2f                              0x0800a78d   Thumb Code    56  d2f.o(.text)
    __aeabi_cfcmpeq                          0x0800a7c5   Thumb Code     0  cfcmple.o(.text)
    __aeabi_cfcmple                          0x0800a7c5   Thumb Code    20  cfcmple.o(.text)
    __aeabi_cfrcmple                         0x0800a7d9   Thumb Code    20  cfrcmple.o(.text)
    __aeabi_uidiv                            0x0800a7ed   Thumb Code     0  uidiv.o(.text)
    __aeabi_uidivmod                         0x0800a7ed   Thumb Code    44  uidiv.o(.text)
    __aeabi_uldivmod                         0x0800a819   Thumb Code    98  uldiv.o(.text)
    __aeabi_llsl                             0x0800a87b   Thumb Code    30  llshl.o(.text)
    _ll_shift_l                              0x0800a87b   Thumb Code     0  llshl.o(.text)
    __aeabi_llsr                             0x0800a899   Thumb Code    32  llushr.o(.text)
    _ll_ushift_r                             0x0800a899   Thumb Code     0  llushr.o(.text)
    __aeabi_lasr                             0x0800a8b9   Thumb Code    36  llsshr.o(.text)
    _ll_sshift_r                             0x0800a8b9   Thumb Code     0  llsshr.o(.text)
    __I$use$fp                               0x0800a8dd   Thumb Code     0  iusefp.o(.text)
    _float_round                             0x0800a8dd   Thumb Code    18  fepilogue.o(.text)
    _float_epilogue                          0x0800a8ef   Thumb Code    92  fepilogue.o(.text)
    _double_round                            0x0800a94b   Thumb Code    30  depilogue.o(.text)
    _double_epilogue                         0x0800a969   Thumb Code   156  depilogue.o(.text)
    __aeabi_d2ulz                            0x0800aa05   Thumb Code    48  dfixul.o(.text)
    __aeabi_cdrcmple                         0x0800aa35   Thumb Code    48  cdrcmple.o(.text)
    __scatterload                            0x0800aa65   Thumb Code    28  init.o(.text)
    __scatterload_rt2                        0x0800aa65   Thumb Code     0  init.o(.text)
    _dsqrt                                   0x0800aa89   Thumb Code   162  dsqrt.o(.text)
    __aeabi_d2iz                             0x0800ab2b   Thumb Code    62  dfixi.o(.text)
    __decompress                             0x0800ab69   Thumb Code     0  __dczerorl2.o(.text)
    __decompress1                            0x0800ab69   Thumb Code    86  __dczerorl2.o(.text)
    __0printf                                0x0800abc1   Thumb Code    22  printfa.o(i.__0printf)
    __1printf                                0x0800abc1   Thumb Code     0  printfa.o(i.__0printf)
    __2printf                                0x0800abc1   Thumb Code     0  printfa.o(i.__0printf)
    __c89printf                              0x0800abc1   Thumb Code     0  printfa.o(i.__0printf)
    printf                                   0x0800abc1   Thumb Code     0  printfa.o(i.__0printf)
    __0sprintf                               0x0800abe1   Thumb Code    34  printfa.o(i.__0sprintf)
    __1sprintf                               0x0800abe1   Thumb Code     0  printfa.o(i.__0sprintf)
    __2sprintf                               0x0800abe1   Thumb Code     0  printfa.o(i.__0sprintf)
    __c89sprintf                             0x0800abe1   Thumb Code     0  printfa.o(i.__0sprintf)
    sprintf                                  0x0800abe1   Thumb Code     0  printfa.o(i.__0sprintf)
    __0vsprintf                              0x0800ac09   Thumb Code    30  printfa.o(i.__0vsprintf)
    __1vsprintf                              0x0800ac09   Thumb Code     0  printfa.o(i.__0vsprintf)
    __2vsprintf                              0x0800ac09   Thumb Code     0  printfa.o(i.__0vsprintf)
    __c89vsprintf                            0x0800ac09   Thumb Code     0  printfa.o(i.__0vsprintf)
    vsprintf                                 0x0800ac09   Thumb Code     0  printfa.o(i.__0vsprintf)
    __ARM_fpclassify                         0x0800ac2d   Thumb Code    40  fpclassify.o(i.__ARM_fpclassify)
    __ieee754_rem_pio2                       0x0800ac55   Thumb Code   828  rred.o(i.__ieee754_rem_pio2)
    __kernel_cos                             0x0800afdd   Thumb Code   230  cos_i.o(i.__kernel_cos)
    __kernel_poly                            0x0800b0d9   Thumb Code   170  poly.o(i.__kernel_poly)
    __kernel_sin                             0x0800b185   Thumb Code   224  sin_i.o(i.__kernel_sin)
    __mathlib_dbl_infnan                     0x0800b271   Thumb Code     6  dunder.o(i.__mathlib_dbl_infnan)
    __mathlib_dbl_infnan2                    0x0800b277   Thumb Code     4  dunder.o(i.__mathlib_dbl_infnan2)
    __mathlib_dbl_invalid                    0x0800b27b   Thumb Code    12  dunder.o(i.__mathlib_dbl_invalid)
    __mathlib_dbl_underflow                  0x0800b289   Thumb Code    10  dunder.o(i.__mathlib_dbl_underflow)
    __scatterload_copy                       0x0800b299   Thumb Code    14  handlers.o(i.__scatterload_copy)
    __scatterload_null                       0x0800b2a7   Thumb Code     2  handlers.o(i.__scatterload_null)
    __scatterload_zeroinit                   0x0800b2a9   Thumb Code    14  handlers.o(i.__scatterload_zeroinit)
    __set_errno                              0x0800b2b9   Thumb Code     6  errno.o(i.__set_errno)
    asin                                     0x0800bb81   Thumb Code   572  asin.o(i.asin)
    atan                                     0x0800bdf1   Thumb Code   474  atan.o(i.atan)
    atan2                                    0x0800c011   Thumb Code   346  atan2.o(i.atan2)
    free                                     0x0800c191   Thumb Code    76  malloc.o(i.free)
    malloc                                   0x0800c1e1   Thumb Code    92  malloc.o(i.malloc)
    sin                                      0x0800c24d   Thumb Code   150  sin.o(i.sin)
    sqrt                                     0x0800c2ed   Thumb Code    76  sqrt.o(i.sqrt)
    STAY                                     0x0800c338   Data         236  main.o(.constdata)
    TUNE                                     0x0800c424   Data        1000  main.o(.constdata)
    reg                                      0x0800c80c   Data          27  inv_mpu.o(.constdata)
    hw                                       0x0800c828   Data          12  inv_mpu.o(.constdata)
    test                                     0x0800c834   Data          40  inv_mpu.o(.constdata)
    menuBack                                 0x0800d4da   Data           5  menu.o(.constdata)
    dowChars                                 0x0800d4df   Data           8  resources.o(.constdata)
    days                                     0x0800d4e7   Data          28  resources.o(.constdata)
    months                                   0x0800d503   Data          48  resources.o(.constdata)
    livesImg                                 0x0800d533   Data           7  resources.o(.constdata)
    stopwatch                                0x0800d53a   Data           8  resources.o(.constdata)
    menu_tunemaker                           0x0800d542   Data         128  resources.o(.constdata)
    menu_timedate                            0x0800d5c2   Data         128  resources.o(.constdata)
    menu_sleep                               0x0800d642   Data         128  resources.o(.constdata)
    menu_sound                               0x0800d6c2   Data         128  resources.o(.constdata)
    menu_games                               0x0800d742   Data         128  resources.o(.constdata)
    menu_brightness                          0x0800d7c2   Data         512  resources.o(.constdata)
    menu_LEDs                                0x0800d9c2   Data         256  resources.o(.constdata)
    menu_invert                              0x0800dac2   Data         128  resources.o(.constdata)
    menu_anim                                0x0800db42   Data         256  resources.o(.constdata)
    menu_volume                              0x0800dc42   Data         512  resources.o(.constdata)
    menu_rotate                              0x0800de42   Data         128  resources.o(.constdata)
    menu_display                             0x0800dec2   Data         128  resources.o(.constdata)
    menu_sleeptimeout                        0x0800df42   Data         128  resources.o(.constdata)
    usbIcon                                  0x0800dfc2   Data          16  resources.o(.constdata)
    battIconHigh                             0x0800dfd2   Data          16  resources.o(.constdata)
    chargeIcon                               0x0800dfe2   Data           8  resources.o(.constdata)
    smallFont                                0x0800dfea   Data         485  resources.o(.constdata)
    midFont                                  0x0800e1cf   Data         570  resources.o(.constdata)
    small2Font                               0x0800e409   Data         220  resources.o(.constdata)
    colon                                    0x0800e4e5   Data          18  resources.o(.constdata)
    selectbar_top                            0x0800e4f7   Data          36  resources.o(.constdata)
    selectbar_bottom                         0x0800e51b   Data          36  resources.o(.constdata)
    menu_alarm                               0x0800e53f   Data         128  resources.o(.constdata)
    menu_default                             0x0800e5bf   Data         128  resources.o(.constdata)
    menu_stopwatch                           0x0800e63f   Data         128  resources.o(.constdata)
    menu_torch                               0x0800e6bf   Data         128  resources.o(.constdata)
    menu_settings                            0x0800e73f   Data         128  resources.o(.constdata)
    menu_diagnostic                          0x0800e7bf   Data         128  resources.o(.constdata)
    menu_exit                                0x0800e83f   Data         128  resources.o(.constdata)
    menu_setfps                              0x0800e8bf   Data         128  resources.o(.constdata)
    tuneBtn1                                 0x0800fa8c   Data          16  tunes.o(.constdata)
    tuneBtn2                                 0x0800fa9c   Data          16  tunes.o(.constdata)
    tuneBtn3                                 0x0800faac   Data          16  tunes.o(.constdata)
    __mathlib_zero                           0x0800fbd8   Data           8  qnan.o(.constdata)
    Region$$Table$$Base                      0x0800fef8   Number         0  anon$$obj.o(Region$$Table)
    Region$$Table$$Limit                     0x0800ff18   Number         0  anon$$obj.o(Region$$Table)
    SystemCoreClock                          0x20000000   Data           4  system_stm32f10x.o(.data)
    AHBPrescTable                            0x20000004   Data          16  system_stm32f10x.o(.data)
    CTRL_LEDs                                0x20000014   Data           1  led.o(.data)
    mpu_err_flag                             0x20000069   Data           1  mpu6050.o(.data)
    imu_run                                  0x2000006c   Data           1  mpu_task.o(.data)
    delta                                    0x2000006d   Data           1  mpu_task.o(.data)
    point_delta                              0x2000006e   Data           1  mpu_task.o(.data)
    pitch                                    0x2000007c   Data           4  mpu_task.o(.data)
    roll                                     0x20000080   Data           4  mpu_task.o(.data)
    yaw                                      0x20000084   Data           4  mpu_task.o(.data)
    USART_RX_STA                             0x2000008c   Data           2  usart.o(.data)
    __stdout                                 0x20000090   Data           4  usart.o(.data)
    MY_FPS                                   0x200000f8   Data           1  display.o(.data)
    lives                                    0x20000144   Data           4  game3.o(.data)
    setting                                  0x20000180   Data           2  menu.o(.data)
    milliseconds                             0x20000184   Data           4  millis.o(.data)
    update                                   0x200001bc   Data           1  time.o(.data)
    timeDate                                 0x200001bd   Data           8  time.o(.data)
    iAng                                     0x200001ec   Data           1  tunemaker.o(.data)
    x1                                       0x200001ed   Data           1  tunemaker.o(.data)
    x2                                       0x200001ee   Data           1  tunemaker.o(.data)
    y1                                       0x200001ef   Data           1  tunemaker.o(.data)
    y2                                       0x200001f0   Data           1  tunemaker.o(.data)
    Cnt                                      0x200001f4   Data           4  tunemaker.o(.data)
    Cntv                                     0x200001f8   Data           4  tunemaker.o(.data)
    keep_on                                  0x200001fc   Data           1  pwrmgr.o(.data)
    new_line_flag                            0x20000206   Data           1  gui_log_console.o(.data)
    LOOP_SHOW_MD                             0x20000207   Data           1  gui_log_console.o(.data)
    NEW_LINE_AMI                             0x20000208   Data           1  gui_log_console.o(.data)
    r_off_set                                0x2000020b   Data           1  gui_log_console.o(.data)
    r_kee                                    0x2000020c   Data           1  gui_log_console.o(.data)
    now_str_length                           0x2000020e   Data           1  gui_log_console.o(.data)
    pix_show_idx                             0x20000210   Data           2  gui_log_console.o(.data)
    Usart2_RxCompleted                       0x20000212   Data           1  usart2.o(.data)
    Usart2_RxCounter                         0x20000214   Data           4  usart2.o(.data)
    is_wifi_data_start                       0x20000218   Data           1  wait_data_clock.o(.data)
    wifi_time_cnt                            0x20000219   Data           1  wait_data_clock.o(.data)
    ServerIP                                 0x20000220   Data           4  wifi.o(.data)
    ServerIP2                                0x20000224   Data           4  wifi.o(.data)
    ServerPort                               0x20000228   Data           4  wifi.o(.data)
    CMD_S                                    0x2000022c   Data          10  wifi.o(.data)
    log_first                                0x20000236   Data           1  wifi_task.o(.data)
    time                                     0x20000238   Data           2  wifi_task.o(.data)
    cmd_finish                               0x2000023c   Data           1  wifi_cmd_task.o(.data)
    skip_aim_flag                            0x2000023d   Data           1  wifi_cmd_task.o(.data)
    clang                                    0x20000248   Data           4  txt_viewer.o(.data)
    btndown                                  0x2000024c   Data           4  txt_viewer.o(.data)
    btnup                                    0x20000250   Data           4  txt_viewer.o(.data)
    __microlib_freelist                      0x20000260   Data           4  mvars.o(.data)
    __microlib_freelist_initialised          0x20000264   Data           4  mvars.o(.data)
    oledBuffer                               0x2000026c   Data        1024  lcd.o(.bss)
    USART_RX_BUF                             0x20000a7c   Data         200  usart.o(.bss)
    appConfig                                0x20000b50   Data          12  appconfig.o(.bss)
    _GRAM                                    0x20000ba5   Data          64  game3.o(.bss)
    menuData                                 0x20000be8   Data          36  menu.o(.bss)
    vert                                     0x20000c15   Data          24  tunemaker.o(.bss)
    OLED_GRAM                                0x20000c2d   Data         512  tunemaker.o(.bss)
    string_buff                              0x20000e2d   Data        1000  gui_log_console.o(.bss)
    firststr_buff                            0x20001215   Data        1024  gui_log_console.o(.bss)
    Usart2_RxBuff                            0x20001618   Data        1024  usart2.o(.bss)
    USART2_TxBuff                            0x20001a18   Data        1024  usart2.o(.bss)
    Data_buff                                0x20001e18   Data        1024  wifi.o(.bss)
    txtViewer                                0x20002218   Data          28  txt_viewer.o(.bss)
    __heap_base                              0x20002238   Data           0  startup_stm32f10x_md.o(HEAP)
    __heap_limit                             0x20002438   Data           0  startup_stm32f10x_md.o(HEAP)
    __initial_sp                             0x20002838   Data           0  startup_stm32f10x_md.o(STACK)



==============================================================================

Memory Map of the image

  Image Entry point : 0x080000ed

  Load Region LR_IROM1 (Base: 0x08000000, Size: 0x00010184, Max: 0x00010000, ABSOLUTE, COMPRESSED[0x0000ff90])

    Execution Region ER_IROM1 (Exec base: 0x08000000, Load base: 0x08000000, Size: 0x0000ff18, Max: 0x00010000, ABSOLUTE)

    Exec Addr    Load Addr    Size         Type   Attr      Idx    E Section Name        Object

    0x08000000   0x08000000   0x000000ec   Data   RO          724    RESET               startup_stm32f10x_md.o
    0x080000ec   0x080000ec   0x00000000   Code   RO         1583  * .ARM.Collect$$$$00000000  mc_w.l(entry.o)
    0x080000ec   0x080000ec   0x00000004   Code   RO         1989    .ARM.Collect$$$$00000001  mc_w.l(entry2.o)
    0x080000f0   0x080000f0   0x00000004   Code   RO         1992    .ARM.Collect$$$$00000004  mc_w.l(entry5.o)
    0x080000f4   0x080000f4   0x00000000   Code   RO         1994    .ARM.Collect$$$$00000008  mc_w.l(entry7b.o)
    0x080000f4   0x080000f4   0x00000000   Code   RO         1996    .ARM.Collect$$$$0000000A  mc_w.l(entry8b.o)
    0x080000f4   0x080000f4   0x00000008   Code   RO         1997    .ARM.Collect$$$$0000000B  mc_w.l(entry9a.o)
    0x080000fc   0x080000fc   0x00000000   Code   RO         1999    .ARM.Collect$$$$0000000D  mc_w.l(entry10a.o)
    0x080000fc   0x080000fc   0x00000000   Code   RO         2001    .ARM.Collect$$$$0000000F  mc_w.l(entry11a.o)
    0x080000fc   0x080000fc   0x00000004   Code   RO         1990    .ARM.Collect$$$$00002712  mc_w.l(entry2.o)
    0x08000100   0x08000100   0x00000154   Code   RO            1    .text               main.o
    0x08000254   0x08000254   0x00000012   Code   RO          344    .text               stm32f10x_it.o
    0x08000266   0x08000266   0x00000002   PAD
    0x08000268   0x08000268   0x00000158   Code   RO          385    .text               system_stm32f10x.o
    0x080003c0   0x080003c0   0x00000148   Code   RO          403    .text               led.o
    0x08000508   0x08000508   0x00000078   Code   RO          434    .text               lcd.o
    0x08000580   0x08000580   0x000001a8   Code   RO          492    .text               beep.o
    0x08000728   0x08000728   0x00001a1c   Code   RO          528    .text               inv_mpu.o
    0x08002144   0x08002144   0x00000a4c   Code   RO          552    .text               inv_mpu_dmp_motion_driver.o
    0x08002b90   0x08002b90   0x000002dc   Code   RO          574    .text               mpu6050.o
    0x08002e6c   0x08002e6c   0x00000234   Code   RO          593    .text               mpuiic.o
    0x080030a0   0x080030a0   0x00000320   Code   RO          606    .text               mpu_task.o
    0x080033c0   0x080033c0   0x00000098   Code   RO          657    .text               delay.o
    0x08003458   0x08003458   0x00000114   Code   RO          688    .text               usart.o
    0x0800356c   0x0800356c   0x00000024   Code   RO          725    .text               startup_stm32f10x_md.o
    0x08003590   0x08003590   0x00000264   Code   RO          729    .text               stm32f10x_gpio.o
    0x080037f4   0x080037f4   0x000002b8   Code   RO          741    .text               stm32f10x_rcc.o
    0x08003aac   0x08003aac   0x00000328   Code   RO          755    .text               stm32f10x_usart.o
    0x08003dd4   0x08003dd4   0x000000b0   Code   RO          767    .text               misc.o
    0x08003e84   0x08003e84   0x00000af0   Code   RO          779    .text               stm32f10x_tim.o
    0x08004974   0x08004974   0x00000278   Code   RO          828    .text               alarm.o
    0x08004bec   0x08004bec   0x00000404   Code   RO          843    .text               alarms.o
    0x08004ff0   0x08004ff0   0x000000c8   Code   RO          857    .text               animation.o
    0x080050b8   0x080050b8   0x00000024   Code   RO          871    .text               appconfig.o
    0x080050dc   0x080050dc   0x000001d8   Code   RO          890    .text               buttons.o
    0x080052b4   0x080052b4   0x00000168   Code   RO          905    .text               diag.o
    0x0800541c   0x0800541c   0x0000021c   Code   RO          919    .text               display.o
    0x08005638   0x08005638   0x0000034c   Code   RO          934    .text               draw.o
    0x08005984   0x08005984   0x00000564   Code   RO          949    .text               game1.o
    0x08005ee8   0x08005ee8   0x00000428   Code   RO          966    .text               game2.o
    0x08006310   0x08006310   0x000003ec   Code   RO          982    .text               game3.o
    0x080066fc   0x080066fc   0x000000f0   Code   RO         1032    .text               games.o
    0x080067ec   0x080067ec   0x00000018   Code   RO         1046    .text               global.o
    0x08006804   0x08006804   0x00000268   Code   RO         1058    .text               m_display.o
    0x08006a6c   0x08006a6c   0x00000188   Code   RO         1073    .text               m_main.o
    0x08006bf4   0x08006bf4   0x0000041c   Code   RO         1087    .text               menu.o
    0x08007010   0x08007010   0x000000f8   Code   RO         1109    .text               millis.o
    0x08007108   0x08007108   0x0000047c   Code   RO         1128    .text               normal.o
    0x08007584   0x08007584   0x00000100   Code   RO         1192    .text               settings.o
    0x08007684   0x08007684   0x000000e8   Code   RO         1206    .text               sleep.o
    0x0800776c   0x0800776c   0x0000015c   Code   RO         1220    .text               sound.o
    0x080078c8   0x080078c8   0x00000210   Code   RO         1234    .text               stopwatch.o
    0x08007ad8   0x08007ad8   0x000001d4   Code   RO         1248    .text               time.o
    0x08007cac   0x08007cac   0x0000044c   Code   RO         1269    .text               timedate.o
    0x080080f8   0x080080f8   0x000000b4   Code   RO         1283    .text               torch.o
    0x080081ac   0x080081ac   0x00000070   Code   RO         1297    .text               tune.o
    0x0800821c   0x0800821c   0x0000038c   Code   RO         1311    .text               tunemaker.o
    0x080085a8   0x080085a8   0x0000001c   Code   RO         1348    .text               ui.o
    0x080085c4   0x080085c4   0x00000070   Code   RO         1360    .text               pwrmgr.o
    0x08008634   0x08008634   0x00000004   Code   RO         1375    .text               oled_basic.o
    0x08008638   0x08008638   0x0000000e   Code   RO         1387    .text               oled_config.o
    0x08008646   0x08008646   0x00000002   PAD
    0x08008648   0x08008648   0x00000294   Code   RO         1399    .text               oled_driver.o
    0x080088dc   0x080088dc   0x00000300   Code   RO         1411    .text               gui_log_console.o
    0x08008bdc   0x08008bdc   0x00000160   Code   RO         1436    .text               usart2.o
    0x08008d3c   0x08008d3c   0x00000054   Code   RO         1457    .text               wait_data_clock.o
    0x08008d90   0x08008d90   0x0000091c   Code   RO         1472    .text               wifi.o
    0x080096ac   0x080096ac   0x00000180   Code   RO         1494    .text               wifi_task.o
    0x0800982c   0x0800982c   0x00000244   Code   RO         1510    .text               wifi_cmd_task.o
    0x08009a70   0x08009a70   0x00000598   Code   RO         1529    .text               txt_viewer.o
    0x0800a008   0x0800a008   0x00000062   Code   RO         1586    .text               mc_w.l(ldiv.o)
    0x0800a06a   0x0800a06a   0x00000002   PAD
    0x0800a06c   0x0800a06c   0x00000024   Code   RO         1588    .text               mc_w.l(rand.o)
    0x0800a090   0x0800a090   0x00000024   Code   RO         1591    .text               mc_w.l(memcpya.o)
    0x0800a0b4   0x0800a0b4   0x00000024   Code   RO         1593    .text               mc_w.l(memseta.o)
    0x0800a0d8   0x0800a0d8   0x00000018   Code   RO         1595    .text               mc_w.l(strcat.o)
    0x0800a0f0   0x0800a0f0   0x00000024   Code   RO         1597    .text               mc_w.l(strstr.o)
    0x0800a114   0x0800a114   0x0000000e   Code   RO         1599    .text               mc_w.l(strlen.o)
    0x0800a122   0x0800a122   0x0000001a   Code   RO         1601    .text               mc_w.l(memcmp.o)
    0x0800a13c   0x0800a13c   0x00000012   Code   RO         1603    .text               mc_w.l(strcpy.o)
    0x0800a14e   0x0800a14e   0x0000001c   Code   RO         1896    .text               mc_w.l(calloc.o)
    0x0800a16a   0x0800a16a   0x000000b0   Code   RO         1898    .text               mf_w.l(fadd.o)
    0x0800a21a   0x0800a21a   0x00000064   Code   RO         1900    .text               mf_w.l(fmul.o)
    0x0800a27e   0x0800a27e   0x0000007c   Code   RO         1902    .text               mf_w.l(fdiv.o)
    0x0800a2fa   0x0800a2fa   0x00000018   Code   RO         1904    .text               mf_w.l(fscalb.o)
    0x0800a312   0x0800a312   0x0000014e   Code   RO         1906    .text               mf_w.l(dadd.o)
    0x0800a460   0x0800a460   0x000000e4   Code   RO         1908    .text               mf_w.l(dmul.o)
    0x0800a544   0x0800a544   0x000000de   Code   RO         1910    .text               mf_w.l(ddiv.o)
    0x0800a622   0x0800a622   0x0000002e   Code   RO         1912    .text               mf_w.l(dscalb.o)
    0x0800a650   0x0800a650   0x00000012   Code   RO         1914    .text               mf_w.l(fflti.o)
    0x0800a662   0x0800a662   0x0000000a   Code   RO         1916    .text               mf_w.l(ffltui.o)
    0x0800a66c   0x0800a66c   0x00000022   Code   RO         1918    .text               mf_w.l(dflti.o)
    0x0800a68e   0x0800a68e   0x0000001a   Code   RO         1920    .text               mf_w.l(dfltui.o)
    0x0800a6a8   0x0800a6a8   0x00000032   Code   RO         1922    .text               mf_w.l(ffixi.o)
    0x0800a6da   0x0800a6da   0x00000028   Code   RO         1924    .text               mf_w.l(ffixui.o)
    0x0800a702   0x0800a702   0x00000032   Code   RO         1926    .text               mf_w.l(dfixui.o)
    0x0800a734   0x0800a734   0x00000026   Code   RO         1928    .text               mf_w.l(f2d.o)
    0x0800a75a   0x0800a75a   0x00000002   PAD
    0x0800a75c   0x0800a75c   0x00000030   Code   RO         1930    .text               mf_w.l(cdcmple.o)
    0x0800a78c   0x0800a78c   0x00000038   Code   RO         1932    .text               mf_w.l(d2f.o)
    0x0800a7c4   0x0800a7c4   0x00000014   Code   RO         1934    .text               mf_w.l(cfcmple.o)
    0x0800a7d8   0x0800a7d8   0x00000014   Code   RO         1936    .text               mf_w.l(cfrcmple.o)
    0x0800a7ec   0x0800a7ec   0x0000002c   Code   RO         2003    .text               mc_w.l(uidiv.o)
    0x0800a818   0x0800a818   0x00000062   Code   RO         2005    .text               mc_w.l(uldiv.o)
    0x0800a87a   0x0800a87a   0x0000001e   Code   RO         2007    .text               mc_w.l(llshl.o)
    0x0800a898   0x0800a898   0x00000020   Code   RO         2009    .text               mc_w.l(llushr.o)
    0x0800a8b8   0x0800a8b8   0x00000024   Code   RO         2011    .text               mc_w.l(llsshr.o)
    0x0800a8dc   0x0800a8dc   0x00000000   Code   RO         2022    .text               mc_w.l(iusefp.o)
    0x0800a8dc   0x0800a8dc   0x0000006e   Code   RO         2023    .text               mf_w.l(fepilogue.o)
    0x0800a94a   0x0800a94a   0x000000ba   Code   RO         2025    .text               mf_w.l(depilogue.o)
    0x0800aa04   0x0800aa04   0x00000030   Code   RO         2027    .text               mf_w.l(dfixul.o)
    0x0800aa34   0x0800aa34   0x00000030   Code   RO         2029    .text               mf_w.l(cdrcmple.o)
    0x0800aa64   0x0800aa64   0x00000024   Code   RO         2031    .text               mc_w.l(init.o)
    0x0800aa88   0x0800aa88   0x000000a2   Code   RO         2033    .text               mf_w.l(dsqrt.o)
    0x0800ab2a   0x0800ab2a   0x0000003e   Code   RO         2035    .text               mf_w.l(dfixi.o)
    0x0800ab68   0x0800ab68   0x00000056   Code   RO         2045    .text               mc_w.l(__dczerorl2.o)
    0x0800abbe   0x0800abbe   0x00000002   PAD
    0x0800abc0   0x0800abc0   0x00000020   Code   RO         1840    i.__0printf         mc_w.l(printfa.o)
    0x0800abe0   0x0800abe0   0x00000028   Code   RO         1842    i.__0sprintf        mc_w.l(printfa.o)
    0x0800ac08   0x0800ac08   0x00000024   Code   RO         1846    i.__0vsprintf       mc_w.l(printfa.o)
    0x0800ac2c   0x0800ac2c   0x00000028   Code   RO         1965    i.__ARM_fpclassify  m_ws.l(fpclassify.o)
    0x0800ac54   0x0800ac54   0x00000388   Code   RO         1970    i.__ieee754_rem_pio2  m_ws.l(rred.o)
    0x0800afdc   0x0800afdc   0x000000fc   Code   RO         1948    i.__kernel_cos      m_ws.l(cos_i.o)
    0x0800b0d8   0x0800b0d8   0x000000aa   Code   RO         1967    i.__kernel_poly     m_ws.l(poly.o)
    0x0800b182   0x0800b182   0x00000002   PAD
    0x0800b184   0x0800b184   0x000000ec   Code   RO         1975    i.__kernel_sin      m_ws.l(sin_i.o)
    0x0800b270   0x0800b270   0x00000006   Code   RO         1952    i.__mathlib_dbl_infnan  m_ws.l(dunder.o)
    0x0800b276   0x0800b276   0x00000004   Code   RO         1953    i.__mathlib_dbl_infnan2  m_ws.l(dunder.o)
    0x0800b27a   0x0800b27a   0x0000000c   Code   RO         1954    i.__mathlib_dbl_invalid  m_ws.l(dunder.o)
    0x0800b286   0x0800b286   0x00000002   PAD
    0x0800b288   0x0800b288   0x00000010   Code   RO         1957    i.__mathlib_dbl_underflow  m_ws.l(dunder.o)
    0x0800b298   0x0800b298   0x0000000e   Code   RO         2039    i.__scatterload_copy  mc_w.l(handlers.o)
    0x0800b2a6   0x0800b2a6   0x00000002   Code   RO         2040    i.__scatterload_null  mc_w.l(handlers.o)
    0x0800b2a8   0x0800b2a8   0x0000000e   Code   RO         2041    i.__scatterload_zeroinit  mc_w.l(handlers.o)
    0x0800b2b6   0x0800b2b6   0x00000002   PAD
    0x0800b2b8   0x0800b2b8   0x0000000c   Code   RO         2017    i.__set_errno       mc_w.l(errno.o)
    0x0800b2c4   0x0800b2c4   0x00000184   Code   RO         1847    i._fp_digits        mc_w.l(printfa.o)
    0x0800b448   0x0800b448   0x000006dc   Code   RO         1848    i._printf_core      mc_w.l(printfa.o)
    0x0800bb24   0x0800bb24   0x00000024   Code   RO         1849    i._printf_post_padding  mc_w.l(printfa.o)
    0x0800bb48   0x0800bb48   0x0000002e   Code   RO         1850    i._printf_pre_padding  mc_w.l(printfa.o)
    0x0800bb76   0x0800bb76   0x0000000a   Code   RO         1852    i._sputc            mc_w.l(printfa.o)
    0x0800bb80   0x0800bb80   0x00000270   Code   RO         1558    i.asin              m_ws.l(asin.o)
    0x0800bdf0   0x0800bdf0   0x00000220   Code   RO         1939    i.atan              m_ws.l(atan.o)
    0x0800c010   0x0800c010   0x00000180   Code   RO         1568    i.atan2             m_ws.l(atan2.o)
    0x0800c190   0x0800c190   0x00000050   Code   RO         1868    i.free              mc_w.l(malloc.o)
    0x0800c1e0   0x0800c1e0   0x0000006c   Code   RO         1869    i.malloc            mc_w.l(malloc.o)
    0x0800c24c   0x0800c24c   0x000000a0   Code   RO         1576    i.sin               m_ws.l(sin.o)
    0x0800c2ec   0x0800c2ec   0x0000004c   Code   RO         1982    i.sqrt              m_ws.l(sqrt.o)
    0x0800c338   0x0800c338   0x000000ec   Data   RO            2    .constdata          main.o
    0x0800c424   0x0800c424   0x000003e8   Data   RO            3    .constdata          main.o
    0x0800c80c   0x0800c80c   0x0000001b   Data   RO          529    .constdata          inv_mpu.o
    0x0800c827   0x0800c827   0x00000001   PAD
    0x0800c828   0x0800c828   0x0000000c   Data   RO          530    .constdata          inv_mpu.o
    0x0800c834   0x0800c834   0x00000028   Data   RO          531    .constdata          inv_mpu.o
    0x0800c85c   0x0800c85c   0x00000bf6   Data   RO          554    .constdata          inv_mpu_dmp_motion_driver.o
    0x0800d452   0x0800d452   0x00000011   Data   RO          951    .constdata          game1.o
    0x0800d463   0x0800d463   0x00000026   Data   RO          968    .constdata          game2.o
    0x0800d489   0x0800d489   0x00000003   PAD
    0x0800d48c   0x0800d48c   0x00000030   Data   RO          984    .constdata          game3.o
    0x0800d4bc   0x0800d4bc   0x0000001e   Data   RO          985    .constdata          game3.o
    0x0800d4da   0x0800d4da   0x00000005   Data   RO         1089    .constdata          menu.o
    0x0800d4df   0x0800d4df   0x00000008   Data   RO         1141    .constdata          resources.o
    0x0800d4e7   0x0800d4e7   0x0000001c   Data   RO         1142    .constdata          resources.o
    0x0800d503   0x0800d503   0x00000030   Data   RO         1143    .constdata          resources.o
    0x0800d533   0x0800d533   0x00000007   Data   RO         1144    .constdata          resources.o
    0x0800d53a   0x0800d53a   0x00000008   Data   RO         1145    .constdata          resources.o
    0x0800d542   0x0800d542   0x00000080   Data   RO         1147    .constdata          resources.o
    0x0800d5c2   0x0800d5c2   0x00000080   Data   RO         1148    .constdata          resources.o
    0x0800d642   0x0800d642   0x00000080   Data   RO         1149    .constdata          resources.o
    0x0800d6c2   0x0800d6c2   0x00000080   Data   RO         1150    .constdata          resources.o
    0x0800d742   0x0800d742   0x00000080   Data   RO         1151    .constdata          resources.o
    0x0800d7c2   0x0800d7c2   0x00000200   Data   RO         1152    .constdata          resources.o
    0x0800d9c2   0x0800d9c2   0x00000100   Data   RO         1153    .constdata          resources.o
    0x0800dac2   0x0800dac2   0x00000080   Data   RO         1154    .constdata          resources.o
    0x0800db42   0x0800db42   0x00000100   Data   RO         1155    .constdata          resources.o
    0x0800dc42   0x0800dc42   0x00000200   Data   RO         1156    .constdata          resources.o
    0x0800de42   0x0800de42   0x00000080   Data   RO         1157    .constdata          resources.o
    0x0800dec2   0x0800dec2   0x00000080   Data   RO         1158    .constdata          resources.o
    0x0800df42   0x0800df42   0x00000080   Data   RO         1159    .constdata          resources.o
    0x0800dfc2   0x0800dfc2   0x00000010   Data   RO         1160    .constdata          resources.o
    0x0800dfd2   0x0800dfd2   0x00000010   Data   RO         1163    .constdata          resources.o
    0x0800dfe2   0x0800dfe2   0x00000008   Data   RO         1165    .constdata          resources.o
    0x0800dfea   0x0800dfea   0x000001e5   Data   RO         1166    .constdata          resources.o
    0x0800e1cf   0x0800e1cf   0x0000023a   Data   RO         1167    .constdata          resources.o
    0x0800e409   0x0800e409   0x000000dc   Data   RO         1168    .constdata          resources.o
    0x0800e4e5   0x0800e4e5   0x00000012   Data   RO         1169    .constdata          resources.o
    0x0800e4f7   0x0800e4f7   0x00000024   Data   RO         1170    .constdata          resources.o
    0x0800e51b   0x0800e51b   0x00000024   Data   RO         1171    .constdata          resources.o
    0x0800e53f   0x0800e53f   0x00000080   Data   RO         1172    .constdata          resources.o
    0x0800e5bf   0x0800e5bf   0x00000080   Data   RO         1173    .constdata          resources.o
    0x0800e63f   0x0800e63f   0x00000080   Data   RO         1174    .constdata          resources.o
    0x0800e6bf   0x0800e6bf   0x00000080   Data   RO         1175    .constdata          resources.o
    0x0800e73f   0x0800e73f   0x00000080   Data   RO         1176    .constdata          resources.o
    0x0800e7bf   0x0800e7bf   0x00000080   Data   RO         1177    .constdata          resources.o
    0x0800e83f   0x0800e83f   0x00000080   Data   RO         1178    .constdata          resources.o
    0x0800e8bf   0x0800e8bf   0x00000080   Data   RO         1179    .constdata          resources.o
    0x0800e93f   0x0800e93f   0x0000000c   Data   RO         1250    .constdata          time.o
    0x0800e94b   0x0800e94b   0x00000001   PAD
    0x0800e94c   0x0800e94c   0x00001140   Data   RO         1313    .constdata          tunemaker.o
    0x0800fa8c   0x0800fa8c   0x00000010   Data   RO         1334    .constdata          tunes.o
    0x0800fa9c   0x0800fa9c   0x00000010   Data   RO         1335    .constdata          tunes.o
    0x0800faac   0x0800faac   0x00000010   Data   RO         1336    .constdata          tunes.o
    0x0800fabc   0x0800fabc   0x00000004   PAD
    0x0800fac0   0x0800fac0   0x00000050   Data   RO         1559    .constdata          m_ws.l(asin.o)
    0x0800fb10   0x0800fb10   0x00000098   Data   RO         1940    .constdata          m_ws.l(atan.o)
    0x0800fba8   0x0800fba8   0x00000030   Data   RO         1949    .constdata          m_ws.l(cos_i.o)
    0x0800fbd8   0x0800fbd8   0x00000008   Data   RO         1969    .constdata          m_ws.l(qnan.o)
    0x0800fbe0   0x0800fbe0   0x000000c8   Data   RO         1972    .constdata          m_ws.l(rred.o)
    0x0800fca8   0x0800fca8   0x00000028   Data   RO         1976    .constdata          m_ws.l(sin_i.o)
    0x0800fcd0   0x0800fcd0   0x0000004d   Data   RO          532    .conststring        inv_mpu.o
    0x0800fd1d   0x0800fd1d   0x00000003   PAD
    0x0800fd20   0x0800fd20   0x00000106   Data   RO         1474    .conststring        wifi.o
    0x0800fe26   0x0800fe26   0x00000002   PAD
    0x0800fe28   0x0800fe28   0x000000d0   Data   RO         1531    .conststring        txt_viewer.o
    0x0800fef8   0x0800fef8   0x00000020   Data   RO         2037    Region$$Table       anon$$obj.o


    Execution Region RW_IRAM1 (Exec base: 0x20000000, Load base: 0x0800ff18, Size: 0x00002838, Max: 0x00005000, ABSOLUTE, COMPRESSED[0x00000078])

    Exec Addr    Load Addr    Size         Type   Attr      Idx    E Section Name        Object

    0x20000000   COMPRESSED   0x00000014   Data   RW          386    .data               system_stm32f10x.o
    0x20000014   COMPRESSED   0x00000014   Data   RW          404    .data               led.o
    0x20000028   COMPRESSED   0x0000000c   Data   RW          493    .data               beep.o
    0x20000034   COMPRESSED   0x00000035   Data   RW          533    .data               inv_mpu.o
    0x20000069   COMPRESSED   0x00000001   Data   RW          575    .data               mpu6050.o
    0x2000006a   COMPRESSED   0x00000002   PAD
    0x2000006c   COMPRESSED   0x0000001c   Data   RW          608    .data               mpu_task.o
    0x20000088   COMPRESSED   0x00000004   Data   RW          658    .data               delay.o
    0x2000008c   COMPRESSED   0x00000002   Data   RW          690    .data               usart.o
    0x2000008e   COMPRESSED   0x00000002   PAD
    0x20000090   COMPRESSED   0x00000004   Data   RW          691    .data               usart.o
    0x20000094   COMPRESSED   0x00000014   Data   RW          742    .data               stm32f10x_rcc.o
    0x200000a8   COMPRESSED   0x00000032   Data   RW          829    .data               alarm.o
    0x200000da   COMPRESSED   0x00000002   PAD
    0x200000dc   COMPRESSED   0x00000010   Data   RW          844    .data               alarms.o
    0x200000ec   COMPRESSED   0x00000004   Data   RW          892    .data               buttons.o
    0x200000f0   COMPRESSED   0x00000008   Data   RW          906    .data               diag.o
    0x200000f8   COMPRESSED   0x00000016   Data   RW          920    .data               display.o
    0x2000010e   COMPRESSED   0x00000002   PAD
    0x20000110   COMPRESSED   0x00000014   Data   RW          952    .data               game1.o
    0x20000124   COMPRESSED   0x00000014   Data   RW          969    .data               game2.o
    0x20000138   COMPRESSED   0x00000028   Data   RW          986    .data               game3.o
    0x20000160   COMPRESSED   0x00000008   Data   RW         1033    .data               games.o
    0x20000168   COMPRESSED   0x00000008   Data   RW         1059    .data               m_display.o
    0x20000170   COMPRESSED   0x00000008   Data   RW         1074    .data               m_main.o
    0x20000178   COMPRESSED   0x00000008   Data   RW         1090    .data               menu.o
    0x20000180   COMPRESSED   0x00000002   Data   RW         1091    .data               menu.o
    0x20000182   COMPRESSED   0x00000002   PAD
    0x20000184   COMPRESSED   0x00000004   Data   RW         1110    .data               millis.o
    0x20000188   COMPRESSED   0x0000000d   Data   RW         1129    .data               normal.o
    0x20000195   COMPRESSED   0x00000003   PAD
    0x20000198   COMPRESSED   0x00000008   Data   RW         1193    .data               settings.o
    0x200001a0   COMPRESSED   0x00000008   Data   RW         1207    .data               sleep.o
    0x200001a8   COMPRESSED   0x00000008   Data   RW         1221    .data               sound.o
    0x200001b0   COMPRESSED   0x0000000c   Data   RW         1235    .data               stopwatch.o
    0x200001bc   COMPRESSED   0x00000009   Data   RW         1251    .data               time.o
    0x200001c5   COMPRESSED   0x00000003   PAD
    0x200001c8   COMPRESSED   0x00000014   Data   RW         1270    .data               timedate.o
    0x200001dc   COMPRESSED   0x00000008   Data   RW         1284    .data               torch.o
    0x200001e4   COMPRESSED   0x00000008   Data   RW         1298    .data               tune.o
    0x200001ec   COMPRESSED   0x00000010   Data   RW         1314    .data               tunemaker.o
    0x200001fc   COMPRESSED   0x00000009   Data   RW         1361    .data               pwrmgr.o
    0x20000205   COMPRESSED   0x00000001   PAD
    0x20000206   COMPRESSED   0x0000000c   Data   RW         1414    .data               gui_log_console.o
    0x20000212   COMPRESSED   0x00000001   Data   RW         1438    .data               usart2.o
    0x20000213   COMPRESSED   0x00000001   PAD
    0x20000214   COMPRESSED   0x00000004   Data   RW         1439    .data               usart2.o
    0x20000218   COMPRESSED   0x00000002   Data   RW         1458    .data               wait_data_clock.o
    0x2000021a   COMPRESSED   0x00000002   PAD
    0x2000021c   COMPRESSED   0x0000001a   Data   RW         1475    .data               wifi.o
    0x20000236   COMPRESSED   0x00000004   Data   RW         1495    .data               wifi_task.o
    0x2000023a   COMPRESSED   0x00000002   PAD
    0x2000023c   COMPRESSED   0x0000000c   Data   RW         1511    .data               wifi_cmd_task.o
    0x20000248   COMPRESSED   0x00000014   Data   RW         1532    .data               txt_viewer.o
    0x2000025c   COMPRESSED   0x00000004   Data   RW         1589    .data               mc_w.l(rand.o)
    0x20000260   COMPRESSED   0x00000004   Data   RW         2013    .data               mc_w.l(mvars.o)
    0x20000264   COMPRESSED   0x00000004   Data   RW         2014    .data               mc_w.l(mvars.o)
    0x20000268   COMPRESSED   0x00000004   Data   RW         2018    .data               mc_w.l(errno.o)
    0x2000026c        -       0x00000400   Zero   RW          435    .bss                lcd.o
    0x2000066c        -       0x00000010   Zero   RW          553    .bss                inv_mpu_dmp_motion_driver.o
    0x2000067c        -       0x00000400   Zero   RW          607    .bss                mpu_task.o
    0x20000a7c        -       0x000000c8   Zero   RW          689    .bss                usart.o
    0x20000b44        -       0x0000000c   Zero   RW          858    .bss                animation.o
    0x20000b50        -       0x0000000c   Zero   RW          872    .bss                appconfig.o
    0x20000b5c        -       0x00000030   Zero   RW          891    .bss                buttons.o
    0x20000b8c        -       0x00000010   Zero   RW          950    .bss                game1.o
    0x20000b9c        -       0x00000009   Zero   RW          967    .bss                game2.o
    0x20000ba5        -       0x00000040   Zero   RW          983    .bss                game3.o
    0x20000be5   COMPRESSED   0x00000003   PAD
    0x20000be8        -       0x00000024   Zero   RW         1088    .bss                menu.o
    0x20000c0c        -       0x00000009   Zero   RW         1249    .bss                time.o
    0x20000c15        -       0x00000218   Zero   RW         1312    .bss                tunemaker.o
    0x20000e2d        -       0x000007e8   Zero   RW         1412    .bss                gui_log_console.o
    0x20001615   COMPRESSED   0x00000003   PAD
    0x20001618        -       0x00000800   Zero   RW         1437    .bss                usart2.o
    0x20001e18        -       0x00000400   Zero   RW         1473    .bss                wifi.o
    0x20002218        -       0x0000001c   Zero   RW         1530    .bss                txt_viewer.o
    0x20002234   COMPRESSED   0x00000004   PAD
    0x20002238        -       0x00000200   Zero   RW          723    HEAP                startup_stm32f10x_md.o
    0x20002438        -       0x00000400   Zero   RW          722    STACK               startup_stm32f10x_md.o


==============================================================================

Image component sizes


      Code (inc. data)   RO Data    RW Data    ZI Data      Debug   Object Name

       632         32          0         50          0       3939   alarm.o
      1028        118          0         16          0       3926   alarms.o
       200         10          0          0         12       1736   animation.o
        36          4          0          0         12       1394   appconfig.o
       424         18          0         12          0       2597   beep.o
       472         36          0          4         48       3526   buttons.o
       152         14          0          4          0       1087   delay.o
       360        142          0          8          0       1768   diag.o
       540         18          0         22          0       3344   display.o
       844         10          0          0          0       5670   draw.o
      1380        200         17         20         16       4144   game1.o
      1064         94         38         20          9       3302   game2.o
      1004        114         78         40         64       5953   game3.o
       240        106          0          8          0       1333   games.o
        24          0          0          0          0        876   global.o
       768         26          0         12       2024       5188   gui_log_console.o
      6684        180        156         53          0      24691   inv_mpu.o
      2636        118       3062          0         16      15313   inv_mpu_dmp_motion_driver.o
       120         10          0          0       1024       1475   lcd.o
       328         24          0         20          0       3706   led.o
       616        168          0          8          0       2694   m_display.o
       392        186          0          8          0       1500   m_main.o
       340         70       1236          0          0     257103   main.o
      1052         54          5         10         36       7444   menu.o
       248         34          0          4          0       1156   millis.o
       176         14          0          0          0       1905   misc.o
       732         32          0          1          0       4620   mpu6050.o
       800         90          0         28       1024       5977   mpu_task.o
       564          8          0          0          0       2924   mpuiic.o
      1148         96          0         13          0       3463   normal.o
         4          0          0          0          0        432   oled_basic.o
        14          0          0          0          0        477   oled_config.o
       660         10          0          0          0       2087   oled_driver.o
       112          4          0          9          0       1988   pwrmgr.o
         0          0       5216          0          0       2545   resources.o
       256        124          0          8          0        952   settings.o
       232         70          0          8          0       1609   sleep.o
       348         88          0          8          0       2061   sound.o
        36          8        236          0       1536        792   startup_stm32f10x_md.o
       612         36          0          0          0       6033   stm32f10x_gpio.o
        18          0          0          0          0       1162   stm32f10x_it.o
       696         32          0         20          0       9016   stm32f10x_rcc.o
      2800         84          0          0          0      23970   stm32f10x_tim.o
       808         22          0          0          0       8900   stm32f10x_usart.o
       528         44          0         12          0       2239   stopwatch.o
         0          0          0          0          0         32   sys.o
       344         34          0         20          0       1787   system_stm32f10x.o
       468         36         12          9          9       3843   time.o
      1100        172          0         20          0       4308   timedate.o
       180         24          0          8          0       1189   torch.o
       112          8          0          8          0       1478   tune.o
       908         82       4416         16        536       3710   tunemaker.o
         0          0         48          0          0        835   tunes.o
      1432        270        208         20         28       6777   txt_viewer.o
        28          4          0          0          0        466   ui.o
       276         16          0          6        200       3242   usart.o
       352         28          0          5       2048       2341   usart2.o
        84         20          0          2          0        827   wait_data_clock.o
      2332        746        262         26       1024       4941   wifi.o
       580        222          0         12          0       3540   wifi_cmd_task.o
       384        100          0          4          0       1642   wifi_task.o

    ----------------------------------------------------------------------
     40712       4310      15036        604       9676     488975   Object Totals
         0          0         32          0          0          0   (incl. Generated)
         4          0         14         22         10          0   (incl. Padding)

    ----------------------------------------------------------------------

      Code (inc. data)   RO Data    RW Data    ZI Data      Debug   Library Member Name

       624         52         80          0          0        168   asin.o
       544         70        152          0          0        124   atan.o
       384         38          0          0          0        144   atan2.o
       252         22         48          0          0        124   cos_i.o
        38          6          0          0          0        272   dunder.o
        40          0          0          0          0         68   fpclassify.o
       170          0          0          0          0         96   poly.o
         0          0          8          0          0          0   qnan.o
       904         76        200          0          0        140   rred.o
       160         10          0          0          0        108   sin.o
       236         12         40          0          0        128   sin_i.o
        76          0          0          0          0         84   sqrt.o
        86          0          0          0          0          0   __dczerorl2.o
        28          0          0          0          0         76   calloc.o
         0          0          0          0          0          0   entry.o
         0          0          0          0          0          0   entry10a.o
         0          0          0          0          0          0   entry11a.o
         8          4          0          0          0          0   entry2.o
         4          0          0          0          0          0   entry5.o
         0          0          0          0          0          0   entry7b.o
         0          0          0          0          0          0   entry8b.o
         8          4          0          0          0          0   entry9a.o
        12          6          0          4          0         68   errno.o
        30          0          0          0          0          0   handlers.o
        36          8          0          0          0         68   init.o
         0          0          0          0          0          0   iusefp.o
        98          0          0          0          0         84   ldiv.o
        30          0          0          0          0         68   llshl.o
        36          0          0          0          0         68   llsshr.o
        32          0          0          0          0         68   llushr.o
       188         20          0          0          0        160   malloc.o
        26          0          0          0          0         80   memcmp.o
        36          0          0          0          0         68   memcpya.o
        36          0          0          0          0        108   memseta.o
         0          0          0          8          0          0   mvars.o
      2344        102          0          0          0        684   printfa.o
        36         10          0          4          0        136   rand.o
        24          0          0          0          0         68   strcat.o
        18          0          0          0          0         68   strcpy.o
        14          0          0          0          0         68   strlen.o
        36          0          0          0          0         80   strstr.o
        44          0          0          0          0         80   uidiv.o
        98          0          0          0          0         92   uldiv.o
        48          0          0          0          0         68   cdcmple.o
        48          0          0          0          0         68   cdrcmple.o
        20          0          0          0          0         68   cfcmple.o
        20          0          0          0          0         68   cfrcmple.o
        56          0          0          0          0         88   d2f.o
       334          0          0          0          0        148   dadd.o
       222          0          0          0          0        100   ddiv.o
       186          0          0          0          0        176   depilogue.o
        62          0          0          0          0         80   dfixi.o
        50          0          0          0          0         76   dfixui.o
        48          0          0          0          0         68   dfixul.o
        34          0          0          0          0         76   dflti.o
        26          0          0          0          0         76   dfltui.o
       228          0          0          0          0         96   dmul.o
        46          0          0          0          0         80   dscalb.o
       162          0          0          0          0        100   dsqrt.o
        38          0          0          0          0         68   f2d.o
       176          0          0          0          0        140   fadd.o
       124          0          0          0          0         88   fdiv.o
       110          0          0          0          0        168   fepilogue.o
        50          0          0          0          0         68   ffixi.o
        40          0          0          0          0         68   ffixui.o
        18          0          0          0          0         68   fflti.o
        10          0          0          0          0         68   ffltui.o
       100          0          0          0          0         76   fmul.o
        24          0          0          0          0         68   fscalb.o

    ----------------------------------------------------------------------
      9028        440        528         16          0       5964   Library Totals
        12          0          0          0          0          0   (incl. Padding)

    ----------------------------------------------------------------------

      Code (inc. data)   RO Data    RW Data    ZI Data      Debug   Library Name

      3428        286        528          0          0       1456   m_ws.l
      3308        154          0         16          0       2192   mc_w.l
      2280          0          0          0          0       2316   mf_w.l

    ----------------------------------------------------------------------
      9028        440        528         16          0       5964   Library Totals

    ----------------------------------------------------------------------

==============================================================================


      Code (inc. data)   RO Data    RW Data    ZI Data      Debug   

     49740       4750      15564        620       9676     485603   Grand Totals
     49740       4750      15564        120       9676     485603   ELF Image Totals (compressed)
     49740       4750      15564        120          0          0   ROM Totals

==============================================================================

    Total RO  Size (Code + RO Data)                65304 (  63.77kB)
    Total RW  Size (RW Data + ZI Data)             10296 (  10.05kB)
    Total ROM Size (Code + RO Data + RW Data)      65424 (  63.89kB)

==============================================================================

